
SHA-512.elf:     file format elf32-avr

Sections:
Idx Name          Size      VMA       LMA       File off  Algn
  0 .data         00000042  00800100  000000c4  00000138  2**0
                  CONTENTS, ALLOC, LOAD, DATA
  1 .text         000000c4  00000000  00000000  00000074  2**1
                  CONTENTS, ALLOC, LOAD, READONLY, CODE
  2 .comment      00000030  00000000  00000000  0000017a  2**0
                  CONTENTS, READONLY
  3 .note.gnu.avr.deviceinfo 0000003c  00000000  00000000  000001ac  2**2
                  CONTENTS, READONLY
  4 .debug_aranges 00000040  00000000  00000000  000001e8  2**3
                  CONTENTS, READONLY, DEBUGGING
  5 .debug_info   000008af  00000000  00000000  00000228  2**0
                  CONTENTS, READONLY, DEBUGGING
  6 .debug_abbrev 000007b9  00000000  00000000  00000ad7  2**0
                  CONTENTS, READONLY, DEBUGGING
  7 .debug_line   00000223  00000000  00000000  00001290  2**0
                  CONTENTS, READONLY, DEBUGGING
  8 .debug_frame  00000024  00000000  00000000  000014b4  2**2
                  CONTENTS, READONLY, DEBUGGING
  9 .debug_str    000003a2  00000000  00000000  000014d8  2**0
                  CONTENTS, READONLY, DEBUGGING
 10 .debug_ranges 00000010  00000000  00000000  0000187a  2**0
                  CONTENTS, READONLY, DEBUGGING

Disassembly of section .text:

00000000 <__vectors>:
   0:	45 c0       	rjmp	.+138    	; 0x8c <__ctors_end>
   2:	00 00       	nop
   4:	4b c0       	rjmp	.+150    	; 0x9c <__bad_interrupt>
   6:	00 00       	nop
   8:	49 c0       	rjmp	.+146    	; 0x9c <__bad_interrupt>
   a:	00 00       	nop
   c:	47 c0       	rjmp	.+142    	; 0x9c <__bad_interrupt>
   e:	00 00       	nop
  10:	45 c0       	rjmp	.+138    	; 0x9c <__bad_interrupt>
  12:	00 00       	nop
  14:	43 c0       	rjmp	.+134    	; 0x9c <__bad_interrupt>
  16:	00 00       	nop
  18:	41 c0       	rjmp	.+130    	; 0x9c <__bad_interrupt>
  1a:	00 00       	nop
  1c:	3f c0       	rjmp	.+126    	; 0x9c <__bad_interrupt>
  1e:	00 00       	nop
  20:	3d c0       	rjmp	.+122    	; 0x9c <__bad_interrupt>
  22:	00 00       	nop
  24:	3b c0       	rjmp	.+118    	; 0x9c <__bad_interrupt>
  26:	00 00       	nop
  28:	39 c0       	rjmp	.+114    	; 0x9c <__bad_interrupt>
  2a:	00 00       	nop
  2c:	37 c0       	rjmp	.+110    	; 0x9c <__bad_interrupt>
  2e:	00 00       	nop
  30:	35 c0       	rjmp	.+106    	; 0x9c <__bad_interrupt>
  32:	00 00       	nop
  34:	33 c0       	rjmp	.+102    	; 0x9c <__bad_interrupt>
  36:	00 00       	nop
  38:	31 c0       	rjmp	.+98     	; 0x9c <__bad_interrupt>
  3a:	00 00       	nop
  3c:	2f c0       	rjmp	.+94     	; 0x9c <__bad_interrupt>
  3e:	00 00       	nop
  40:	2d c0       	rjmp	.+90     	; 0x9c <__bad_interrupt>
  42:	00 00       	nop
  44:	2b c0       	rjmp	.+86     	; 0x9c <__bad_interrupt>
  46:	00 00       	nop
  48:	29 c0       	rjmp	.+82     	; 0x9c <__bad_interrupt>
  4a:	00 00       	nop
  4c:	27 c0       	rjmp	.+78     	; 0x9c <__bad_interrupt>
  4e:	00 00       	nop
  50:	25 c0       	rjmp	.+74     	; 0x9c <__bad_interrupt>
  52:	00 00       	nop
  54:	23 c0       	rjmp	.+70     	; 0x9c <__bad_interrupt>
  56:	00 00       	nop
  58:	21 c0       	rjmp	.+66     	; 0x9c <__bad_interrupt>
  5a:	00 00       	nop
  5c:	1f c0       	rjmp	.+62     	; 0x9c <__bad_interrupt>
  5e:	00 00       	nop
  60:	1d c0       	rjmp	.+58     	; 0x9c <__bad_interrupt>
  62:	00 00       	nop
  64:	1b c0       	rjmp	.+54     	; 0x9c <__bad_interrupt>
  66:	00 00       	nop
  68:	19 c0       	rjmp	.+50     	; 0x9c <__bad_interrupt>
  6a:	00 00       	nop
  6c:	17 c0       	rjmp	.+46     	; 0x9c <__bad_interrupt>
  6e:	00 00       	nop
  70:	15 c0       	rjmp	.+42     	; 0x9c <__bad_interrupt>
  72:	00 00       	nop
  74:	13 c0       	rjmp	.+38     	; 0x9c <__bad_interrupt>
  76:	00 00       	nop
  78:	11 c0       	rjmp	.+34     	; 0x9c <__bad_interrupt>
  7a:	00 00       	nop
  7c:	0f c0       	rjmp	.+30     	; 0x9c <__bad_interrupt>
  7e:	00 00       	nop
  80:	0d c0       	rjmp	.+26     	; 0x9c <__bad_interrupt>
  82:	00 00       	nop
  84:	0b c0       	rjmp	.+22     	; 0x9c <__bad_interrupt>
  86:	00 00       	nop
  88:	09 c0       	rjmp	.+18     	; 0x9c <__bad_interrupt>
	...

0000008c <__ctors_end>:
  8c:	11 24       	eor	r1, r1
  8e:	1f be       	out	0x3f, r1	; 63
  90:	cf ef       	ldi	r28, 0xFF	; 255
  92:	d0 e1       	ldi	r29, 0x10	; 16
  94:	de bf       	out	0x3e, r29	; 62
  96:	cd bf       	out	0x3d, r28	; 61
  98:	0c d0       	rcall	.+24     	; 0xb2 <main>
  9a:	12 c0       	rjmp	.+36     	; 0xc0 <_exit>

0000009c <__bad_interrupt>:
  9c:	b1 cf       	rjmp	.-158    	; 0x0 <__vectors>

0000009e <test>:
.text

.global test
test:

	mov	r1,	r24 ;2
  9e:	18 2e       	mov	r1, r24
	mov	r2,	r22 ;2
  a0:	26 2e       	mov	r2, r22
	mov	r3,	r20 ;3
  a2:	34 2e       	mov	r3, r20

	sub r2,	r1
  a4:	21 18       	sub	r2, r1
	ldi r16, hi8(SBOX_TABLE2)
  a6:	01 e0       	ldi	r16, 0x01	; 1
	ldi r17, lo8(SBOX_TABLE2)
  a8:	11 e2       	ldi	r17, 0x21	; 33
;	lds r7, 0x0126

	;out 0x25, r3
	;in R5, 0x25
	rcall test2
  aa:	01 d0       	rcall	.+2      	; 0xae <test2>
	ldi r16, 0xff
  ac:	0f ef       	ldi	r16, 0xFF	; 255

000000ae <test2>:

test2:
	add r2, r1
  ae:	21 0c       	add	r2, r1
  b0:	08 95       	ret

000000b2 <main>:
	u8 a = 2;
	u8 b = 2;
	u8 c = 3;


	test(a,b,c);
  b2:	43 e0       	ldi	r20, 0x03	; 3
  b4:	62 e0       	ldi	r22, 0x02	; 2
  b6:	82 e0       	ldi	r24, 0x02	; 2
  b8:	f2 df       	rcall	.-28     	; 0x9e <test>
}
  ba:	80 e0       	ldi	r24, 0x00	; 0
  bc:	90 e0       	ldi	r25, 0x00	; 0
  be:	08 95       	ret

000000c0 <_exit>:
  c0:	f8 94       	cli

000000c2 <__stop_program>:
  c2:	ff cf       	rjmp	.-2      	; 0xc2 <__stop_program>
