
AES_8bit Asm_fast.elf:     file format elf32-avr

Sections:
Idx Name          Size      VMA       LMA       File off  Algn
  0 .data         00000310  00800100  00001538  000015ac  2**0
                  CONTENTS, ALLOC, LOAD, DATA
  1 .text         00001538  00000000  00000000  00000074  2**1
                  CONTENTS, ALLOC, LOAD, READONLY, CODE
  2 .comment      00000030  00000000  00000000  000018bc  2**0
                  CONTENTS, READONLY
  3 .note.gnu.avr.deviceinfo 00000040  00000000  00000000  000018ec  2**2
                  CONTENTS, READONLY
  4 .debug_aranges 00000060  00000000  00000000  00001930  2**3
                  CONTENTS, READONLY, DEBUGGING
  5 .debug_info   0000082d  00000000  00000000  00001990  2**0
                  CONTENTS, READONLY, DEBUGGING
  6 .debug_abbrev 0000067f  00000000  00000000  000021bd  2**0
                  CONTENTS, READONLY, DEBUGGING
  7 .debug_line   00003342  00000000  00000000  0000283c  2**0
                  CONTENTS, READONLY, DEBUGGING
  8 .debug_frame  00000038  00000000  00000000  00005b80  2**2
                  CONTENTS, READONLY, DEBUGGING
  9 .debug_str    00000371  00000000  00000000  00005bb8  2**0
                  CONTENTS, READONLY, DEBUGGING
 10 .debug_loc    00000048  00000000  00000000  00005f29  2**0
                  CONTENTS, READONLY, DEBUGGING
 11 .debug_ranges 00000010  00000000  00000000  00005f71  2**0
                  CONTENTS, READONLY, DEBUGGING

Disassembly of section .text:

00000000 <__vectors>:
       0:	33 c0       	rjmp	.+102    	; 0x68 <__ctors_end>
       2:	00 00       	nop
       4:	46 c0       	rjmp	.+140    	; 0x92 <__bad_interrupt>
       6:	00 00       	nop
       8:	44 c0       	rjmp	.+136    	; 0x92 <__bad_interrupt>
       a:	00 00       	nop
       c:	42 c0       	rjmp	.+132    	; 0x92 <__bad_interrupt>
       e:	00 00       	nop
      10:	40 c0       	rjmp	.+128    	; 0x92 <__bad_interrupt>
      12:	00 00       	nop
      14:	3e c0       	rjmp	.+124    	; 0x92 <__bad_interrupt>
      16:	00 00       	nop
      18:	3c c0       	rjmp	.+120    	; 0x92 <__bad_interrupt>
      1a:	00 00       	nop
      1c:	3a c0       	rjmp	.+116    	; 0x92 <__bad_interrupt>
      1e:	00 00       	nop
      20:	38 c0       	rjmp	.+112    	; 0x92 <__bad_interrupt>
      22:	00 00       	nop
      24:	36 c0       	rjmp	.+108    	; 0x92 <__bad_interrupt>
      26:	00 00       	nop
      28:	34 c0       	rjmp	.+104    	; 0x92 <__bad_interrupt>
      2a:	00 00       	nop
      2c:	32 c0       	rjmp	.+100    	; 0x92 <__bad_interrupt>
      2e:	00 00       	nop
      30:	30 c0       	rjmp	.+96     	; 0x92 <__bad_interrupt>
      32:	00 00       	nop
      34:	2e c0       	rjmp	.+92     	; 0x92 <__bad_interrupt>
      36:	00 00       	nop
      38:	2c c0       	rjmp	.+88     	; 0x92 <__bad_interrupt>
      3a:	00 00       	nop
      3c:	2a c0       	rjmp	.+84     	; 0x92 <__bad_interrupt>
      3e:	00 00       	nop
      40:	28 c0       	rjmp	.+80     	; 0x92 <__bad_interrupt>
      42:	00 00       	nop
      44:	26 c0       	rjmp	.+76     	; 0x92 <__bad_interrupt>
      46:	00 00       	nop
      48:	24 c0       	rjmp	.+72     	; 0x92 <__bad_interrupt>
      4a:	00 00       	nop
      4c:	22 c0       	rjmp	.+68     	; 0x92 <__bad_interrupt>
      4e:	00 00       	nop
      50:	20 c0       	rjmp	.+64     	; 0x92 <__bad_interrupt>
      52:	00 00       	nop
      54:	1e c0       	rjmp	.+60     	; 0x92 <__bad_interrupt>
      56:	00 00       	nop
      58:	1c c0       	rjmp	.+56     	; 0x92 <__bad_interrupt>
      5a:	00 00       	nop
      5c:	1a c0       	rjmp	.+52     	; 0x92 <__bad_interrupt>
      5e:	00 00       	nop
      60:	18 c0       	rjmp	.+48     	; 0x92 <__bad_interrupt>
      62:	00 00       	nop
      64:	16 c0       	rjmp	.+44     	; 0x92 <__bad_interrupt>
	...

00000068 <__ctors_end>:
      68:	11 24       	eor	r1, r1
      6a:	1f be       	out	0x3f, r1	; 63
      6c:	cf ef       	ldi	r28, 0xFF	; 255
      6e:	d8 e0       	ldi	r29, 0x08	; 8
      70:	de bf       	out	0x3e, r29	; 62
      72:	cd bf       	out	0x3d, r28	; 61

00000074 <__do_copy_data>:
      74:	14 e0       	ldi	r17, 0x04	; 4
      76:	a0 e0       	ldi	r26, 0x00	; 0
      78:	b1 e0       	ldi	r27, 0x01	; 1
      7a:	e8 e3       	ldi	r30, 0x38	; 56
      7c:	f5 e1       	ldi	r31, 0x15	; 21
      7e:	02 c0       	rjmp	.+4      	; 0x84 <__do_copy_data+0x10>
      80:	05 90       	lpm	r0, Z+
      82:	0d 92       	st	X+, r0
      84:	a0 31       	cpi	r26, 0x10	; 16
      86:	b1 07       	cpc	r27, r17
      88:	d9 f7       	brne	.-10     	; 0x80 <__do_copy_data+0xc>
      8a:	0e 94 40 0a 	call	0x1480	; 0x1480 <main>
      8e:	0c 94 9a 0a 	jmp	0x1534	; 0x1534 <_exit>

00000092 <__bad_interrupt>:
      92:	b6 cf       	rjmp	.-148    	; 0x0 <__vectors>

00000094 <aes256_init>:

.text

.global aes256_init
aes256_init:
	movw r20, r22
      94:	ab 01       	movw	r20, r22
	ldi r23, hi8(256)
      96:	71 e0       	ldi	r23, 0x01	; 1
	ldi r22, lo8(256)
      98:	60 e0       	ldi	r22, 0x00	; 0
	rjmp aes_init
      9a:	07 c0       	rjmp	.+14     	; 0xaa <aes_init>

0000009c <aes192_init>:
	
.global aes192_init
aes192_init:
	movw r20, r22
      9c:	ab 01       	movw	r20, r22
	ldi r23, hi8(192)
      9e:	70 e0       	ldi	r23, 0x00	; 0
	ldi r22, lo8(192)
      a0:	60 ec       	ldi	r22, 0xC0	; 192
	rjmp aes_init
      a2:	03 c0       	rjmp	.+6      	; 0xaa <aes_init>

000000a4 <aes128_init>:
	
.global aes128_init
aes128_init:
	movw r20, r22
      a4:	ab 01       	movw	r20, r22
	clr r23
      a6:	77 27       	eor	r23, r23
	ldi r22, 128
      a8:	60 e8       	ldi	r22, 0x80	; 128

000000aa <aes_init>:
 * param keysize_b: r22:r23
 * param ctx:       r20:r21
 */
.global aes_init
aes_init:
	push_range 14, 17
      aa:	ef 92       	push	r14
      ac:	ff 92       	push	r15
      ae:	0f 93       	push	r16
      b0:	1f 93       	push	r17
	push r28
      b2:	cf 93       	push	r28
	push r29
      b4:	df 93       	push	r29
	movw r30, r20
      b6:	fa 01       	movw	r30, r20
	movw r28, r20
      b8:	ea 01       	movw	r28, r20
	movw r26, r24
      ba:	dc 01       	movw	r26, r24
	lsr r23
      bc:	76 95       	lsr	r23
	ror r22
      be:	67 95       	ror	r22
	lsr r22
      c0:	66 95       	lsr	r22
	lsr r22 /* r22 contains keysize_b/8 */
      c2:	66 95       	lsr	r22
	mov C1, r22
      c4:	26 2f       	mov	r18, r22

1:	/* copy key to ctx */ 
	ld r0, X+
      c6:	0d 90       	ld	r0, X+
	st Z+, r0
      c8:	01 92       	st	Z+, r0
	dec C1
      ca:	2a 95       	dec	r18
	brne 1b
      cc:	e1 f7       	brne	.-8      	; 0xc6 <aes_init+0x1c>
	
	lsr NK
      ce:	66 95       	lsr	r22
	lsr NK
      d0:	66 95       	lsr	r22
	bst NK,3 /* set T if NK==8 */
      d2:	63 fb       	bst	r22, 3
	mov NEXT_NK, NK
      d4:	36 2f       	mov	r19, r22
	mov HI, NK
      d6:	76 2f       	mov	r23, r22
	subi HI, -7
      d8:	79 5f       	subi	r23, 0xF9	; 249
	lsl HI
      da:	77 0f       	add	r23, r23
	lsl HI
      dc:	77 0f       	add	r23, r23
	movw r26, r30
      de:	df 01       	movw	r26, r30
	sbiw r26, 4
      e0:	14 97       	sbiw	r26, 0x04	; 4
	mov C1, NK
      e2:	26 2f       	mov	r18, r22
	ldi r31, hi8(SBOX_TABLE)
      e4:	f1 e0       	ldi	r31, 0x01	; 1
	movw SBOX_SAVE0, r30
      e6:	7f 01       	movw	r14, r30
	ldi XRC, 1
      e8:	11 e0       	ldi	r17, 0x01	; 1
1:	
	ld T0, X+
      ea:	4d 91       	ld	r20, X+
	ld T1, X+
      ec:	5d 91       	ld	r21, X+
	ld T2, X+
      ee:	8d 91       	ld	r24, X+
	ld T3, X+
      f0:	9d 91       	ld	r25, X+
	cp NEXT_NK, C1
      f2:	32 17       	cp	r19, r18
	breq 2f 
      f4:	79 f0       	breq	.+30     	; 0x114 <aes_init+0x6a>
	brtc 5f
      f6:	ee f4       	brtc	.+58     	; 0x132 <aes_init+0x88>
	mov r16, C1
      f8:	02 2f       	mov	r16, r18
	andi r16, 0x07
      fa:	07 70       	andi	r16, 0x07	; 7
	cpi r16, 0x04
      fc:	04 30       	cpi	r16, 0x04	; 4
	brne 5f
      fe:	c9 f4       	brne	.+50     	; 0x132 <aes_init+0x88>
	movw r30, SBOX_SAVE0
     100:	f7 01       	movw	r30, r14
	mov r30, T0
     102:	e4 2f       	mov	r30, r20
	ld T0, Z
     104:	40 81       	ld	r20, Z

	mov r30, T1
     106:	e5 2f       	mov	r30, r21
	ld T1, Z
     108:	50 81       	ld	r21, Z

	mov r30, T2
     10a:	e8 2f       	mov	r30, r24
	ld T2, Z
     10c:	80 81       	ld	r24, Z

	mov r30, T3
     10e:	e9 2f       	mov	r30, r25
	ld T3, Z
     110:	90 81       	ld	r25, Z

	rjmp 5f
     112:	0f c0       	rjmp	.+30     	; 0x132 <aes_init+0x88>
2:
	add NEXT_NK, NK
     114:	36 0f       	add	r19, r22
	movw r30, SBOX_SAVE0
     116:	f7 01       	movw	r30, r14
	mov r30, T0
     118:	e4 2f       	mov	r30, r20
	ld r16, Z
     11a:	00 81       	ld	r16, Z

	mov r30, T1
     11c:	e5 2f       	mov	r30, r21
	ld T0, Z
     11e:	40 81       	ld	r20, Z

	mov r30, T2
     120:	e8 2f       	mov	r30, r24
	ld T1, Z
     122:	50 81       	ld	r21, Z

	mov r30, T3
     124:	e9 2f       	mov	r30, r25
	ld T2, Z
     126:	80 81       	ld	r24, Z

	mov T3, r16
     128:	90 2f       	mov	r25, r16
	eor T0, XRC
     12a:	41 27       	eor	r20, r17
	lsl XRC
     12c:	11 0f       	add	r17, r17
	brcc 3f
     12e:	08 f4       	brcc	.+2      	; 0x132 <aes_init+0x88>
	ldi XRC, 0x1b
     130:	1b e1       	ldi	r17, 0x1B	; 27
3:
5:	
	movw r30, r26
     132:	fd 01       	movw	r30, r26

	ld r0, Y+
     134:	09 90       	ld	r0, Y+
	eor r0, T0
     136:	04 26       	eor	r0, r20
	st Z+, r0 
     138:	01 92       	st	Z+, r0
	ld r0, Y+
     13a:	09 90       	ld	r0, Y+
	eor r0 ,T1
     13c:	05 26       	eor	r0, r21
	st Z+, r0
     13e:	01 92       	st	Z+, r0
	ld r0, Y+
     140:	09 90       	ld	r0, Y+
	eor r0, T2
     142:	08 26       	eor	r0, r24
	st Z+, r0
     144:	01 92       	st	Z+, r0
	ld r0, Y+
     146:	09 90       	ld	r0, Y+
	eor r0, T3
     148:	09 26       	eor	r0, r25
	st Z+, r0
     14a:	01 92       	st	Z+, r0
	
	inc C1
     14c:	23 95       	inc	r18
	cp C1, HI
     14e:	27 17       	cp	r18, r23
	breq 6f
     150:	09 f0       	breq	.+2      	; 0x154 <aes_init+0xaa>
	rjmp 1b
     152:	cb cf       	rjmp	.-106    	; 0xea <aes_init+0x40>
6:	
	clt
     154:	e8 94       	clt
	pop r29
     156:	df 91       	pop	r29
	pop r28
     158:	cf 91       	pop	r28
	pop_range 14, 17
     15a:	1f 91       	pop	r17
     15c:	0f 91       	pop	r16
     15e:	ff 90       	pop	r15
     160:	ef 90       	pop	r14
     162:	08 95       	ret

00000164 <aes256_enc_nobr>:
/*
 * param state:  r24:r25
 * param ks:     r22:r23
 */
	//push_range 0, 15
	push r28
     164:	cf 93       	push	r28
	push r29
     166:	df 93       	push	r29
	push r24
     168:	8f 93       	push	r24
	push r25
     16a:	9f 93       	push	r25
	movw r26, r22
     16c:	db 01       	movw	r26, r22
	movw r30, r24
     16e:	fc 01       	movw	r30, r24
	//State Set
	.irp row, 0, 1, 2, 3
		.irp col, 0, 1, 2, 3
			ld ST\row\col, Z+
		.endr
	.endr
     170:	11 90       	ld	r1, Z+
     172:	21 90       	ld	r2, Z+
     174:	31 90       	ld	r3, Z+
     176:	01 90       	ld	r0, Z+
     178:	41 90       	ld	r4, Z+
     17a:	51 90       	ld	r5, Z+
     17c:	61 90       	ld	r6, Z+
     17e:	b1 90       	ld	r11, Z+
     180:	81 90       	ld	r8, Z+
     182:	91 90       	ld	r9, Z+
     184:	a1 90       	ld	r10, Z+
     186:	71 90       	ld	r7, Z+
     188:	c1 90       	ld	r12, Z+
     18a:	d1 90       	ld	r13, Z+
     18c:	e1 90       	ld	r14, Z+
     18e:	f1 90       	ld	r15, Z+

	ldi r31, hi8(SBOX_TABLE)	
     190:	f2 e0       	ldi	r31, 0x02	; 2
	ldi r29, hi8(MIX2_TABLE)
     192:	d3 e0       	ldi	r29, 0x03	; 3

	ldi r20, 14 ;!!-------
     194:	4e e0       	ldi	r20, 0x0E	; 14
	add r26, r20 ;!!------
     196:	a4 0f       	add	r26, r20
	/*ld r16,	X+ ;------
	eor ST30, r16  ;------
	ld r16,	X+     ;------
	eor ST31, r16*/;------

	ld r16,	X+     ;------
     198:	0d 91       	ld	r16, X+
	eor ST32, r16  ;------
     19a:	e0 26       	eor	r14, r16
	ld r16,	X+     ;------
     19c:	0d 91       	ld	r16, X+
	eor ST33, r16  ;------
     19e:	f0 26       	eor	r15, r16

	//1 Round------------------------------------------------------------------------------------------
	
	/* Shift Row and Subbyte , Mixcolumns */
	//! 1번째 열 시작
	mov r30, ST00 
     1a0:	e1 2d       	mov	r30, r1
	ld  M1, Z 
     1a2:	00 81       	ld	r16, Z
	mov M2, M1
     1a4:	10 2f       	mov	r17, r16
	mov M3, M2 
     1a6:	71 2f       	mov	r23, r17
	mov r28, ST00
     1a8:	c1 2d       	mov	r28, r1
	ld  M0, Y
     1aa:	38 81       	ld	r19, Y
	eor M3, M0 ; 2, 1, 1, 3 완료
     1ac:	73 27       	eor	r23, r19

	mov r30, ST11
     1ae:	e5 2d       	mov	r30, r5
	ld  T0, Z
     1b0:	40 81       	ld	r20, Z
	eor M0, T0
     1b2:	34 27       	eor	r19, r20
	eor M2, T0
     1b4:	14 27       	eor	r17, r20
	eor M3, T0 
     1b6:	74 27       	eor	r23, r20
	mov r28, ST11
     1b8:	c5 2d       	mov	r28, r5
	ld  T0, Y
     1ba:	48 81       	ld	r20, Y
	eor M0, T0
     1bc:	34 27       	eor	r19, r20
	eor M1, T0 ;3, 2, 2, 1 완료
     1be:	04 27       	eor	r16, r20

	mov r30, ST22
     1c0:	ea 2d       	mov	r30, r10
	ld  T0, Z
     1c2:	40 81       	ld	r20, Z
	eor M0, T0
     1c4:	34 27       	eor	r19, r20
	eor M1, T0
     1c6:	04 27       	eor	r16, r20
	eor M3, T0
     1c8:	74 27       	eor	r23, r20
	mov r28, ST22
     1ca:	ca 2d       	mov	r28, r10
	ld  T0, Y
     1cc:	48 81       	ld	r20, Y
	eor M1, T0
     1ce:	04 27       	eor	r16, r20
	eor M2, T0 ;1, 3, 2, 1 완료
     1d0:	14 27       	eor	r17, r20

	mov r30, ST33
     1d2:	ef 2d       	mov	r30, r15
	ld  T0, Z
     1d4:	40 81       	ld	r20, Z
	eor M0, T0
     1d6:	34 27       	eor	r19, r20
	eor M1, T0
     1d8:	04 27       	eor	r16, r20
	eor M2, T0 
     1da:	14 27       	eor	r17, r20
	mov r28, ST33
     1dc:	cf 2d       	mov	r28, r15
	ld  T0, Y
     1de:	48 81       	ld	r20, Y
	eor M2, T0
     1e0:	14 27       	eor	r17, r20
	eor M3, T0 ;1, 1, 3, 2 완료
     1e2:	74 27       	eor	r23, r20

	mov ST00, M0
     1e4:	13 2e       	mov	r1, r19
	//! 1번째 열 완료

	//! 2번째 열 시작
	mov r30, ST10 
     1e6:	e4 2d       	mov	r30, r4
	ld  T1, Z 
     1e8:	50 81       	ld	r21, Z
	mov T2, T1
     1ea:	65 2f       	mov	r22, r21
	mov T3, T2 
     1ec:	86 2f       	mov	r24, r22
	mov r28, ST10
     1ee:	c4 2d       	mov	r28, r4
	ld  T0, Y
     1f0:	48 81       	ld	r20, Y
	eor T3, T0 ; 2, 1, 1, 3 완료
     1f2:	84 27       	eor	r24, r20

	mov r30, ST21
     1f4:	e9 2d       	mov	r30, r9
	ld  M0, Z
     1f6:	30 81       	ld	r19, Z
	eor T0, M0
     1f8:	43 27       	eor	r20, r19
	eor T2, M0
     1fa:	63 27       	eor	r22, r19
	eor T3, M0 
     1fc:	83 27       	eor	r24, r19
	mov r28, ST21
     1fe:	c9 2d       	mov	r28, r9
	ld  M0, Y
     200:	38 81       	ld	r19, Y
	eor T0, M0
     202:	43 27       	eor	r20, r19
	eor T1, M0 ;3, 2, 2, 1 완료
     204:	53 27       	eor	r21, r19

	mov r30, ST32
     206:	ee 2d       	mov	r30, r14
	ld  M0, Z
     208:	30 81       	ld	r19, Z
	eor T0, M0
     20a:	43 27       	eor	r20, r19
	eor T1, M0
     20c:	53 27       	eor	r21, r19
	eor T3, M0 
     20e:	83 27       	eor	r24, r19
	mov r28, ST32
     210:	ce 2d       	mov	r28, r14
	ld  M0, Y
     212:	38 81       	ld	r19, Y
	eor T1, M0
     214:	53 27       	eor	r21, r19
	eor T2, M0 ;1, 3, 2, 1 완료
     216:	63 27       	eor	r22, r19

	mov r30, ST03
     218:	e0 2d       	mov	r30, r0
	ld  M0, Z
     21a:	30 81       	ld	r19, Z
	eor T0, M0
     21c:	43 27       	eor	r20, r19
	eor T1, M0
     21e:	53 27       	eor	r21, r19
	eor T2, M0 
     220:	63 27       	eor	r22, r19
	mov r28, ST03
     222:	c0 2d       	mov	r28, r0
	ld  M0, Y
     224:	38 81       	ld	r19, Y
	eor T2, M0
     226:	63 27       	eor	r22, r19
	eor T3, M0 ;1, 1, 3, 2 완료
     228:	83 27       	eor	r24, r19

	movw ST10, T0
     22a:	2a 01       	movw	r4, r20
	;mov ST11, T1
	mov ST03, M3
     22c:	07 2e       	mov	r0, r23
	//! 2번째 열 완료

	//! 3번째 열 시작
	mov r30, ST20 
     22e:	e8 2d       	mov	r30, r8
	ld  T0, Z 
     230:	40 81       	ld	r20, Z
	mov T1, T0
     232:	54 2f       	mov	r21, r20
	mov M3, T1 
     234:	75 2f       	mov	r23, r21
	mov r28, ST20
     236:	c8 2d       	mov	r28, r8
	ld  M0, Y
     238:	38 81       	ld	r19, Y
	eor M3, M0 ; 2, 1, 1, 3 완료
     23a:	73 27       	eor	r23, r19

	mov r30, ST31
     23c:	ed 2d       	mov	r30, r13
	ld  r25, Z
     23e:	90 81       	ld	r25, Z
	eor M0, r25
     240:	39 27       	eor	r19, r25
	eor T1, r25
     242:	59 27       	eor	r21, r25
	eor M3, r25
     244:	79 27       	eor	r23, r25
	mov r28, ST31
     246:	cd 2d       	mov	r28, r13
	ld  r25, Y
     248:	98 81       	ld	r25, Y
	eor M0, r25
     24a:	39 27       	eor	r19, r25
	eor T0, r25 ;3, 2, 2, 1 완료
     24c:	49 27       	eor	r20, r25

	mov r30, ST02
     24e:	e3 2d       	mov	r30, r3
	ld  r25, Z
     250:	90 81       	ld	r25, Z
	eor M0, r25
     252:	39 27       	eor	r19, r25
	eor T0, r25
     254:	49 27       	eor	r20, r25
	eor M3, r25
     256:	79 27       	eor	r23, r25
	mov r28, ST02
     258:	c3 2d       	mov	r28, r3
	ld  r25, Y
     25a:	98 81       	ld	r25, Y
	eor T0, r25
     25c:	49 27       	eor	r20, r25
	eor T1, r25;1, 3, 2, 1 완료
     25e:	59 27       	eor	r21, r25

	mov r30, ST13
     260:	eb 2d       	mov	r30, r11
	ld  r25, Z
     262:	90 81       	ld	r25, Z
	eor M0, r25
     264:	39 27       	eor	r19, r25
	eor T0, r25
     266:	49 27       	eor	r20, r25
	eor T1, r25 
     268:	59 27       	eor	r21, r25
	mov r28, ST13
     26a:	cb 2d       	mov	r28, r11
	ld  r25, Y
     26c:	98 81       	ld	r25, Y
	eor T1, r25
     26e:	59 27       	eor	r21, r25
	eor M3, r25 ;1, 1, 3, 2 완료
     270:	79 27       	eor	r23, r25

	mov ST20, M0
     272:	83 2e       	mov	r8, r19
	mov ST21, T0
     274:	94 2e       	mov	r9, r20
	mov ST22, T1
     276:	a5 2e       	mov	r10, r21
	mov ST13, T3
     278:	b8 2e       	mov	r11, r24
	//! 3번째 열 완료



	//! 4번째 열 시작
	mov r30, ST30 
     27a:	ec 2d       	mov	r30, r12
	ld  T1, Z 
     27c:	50 81       	ld	r21, Z
	mov T3, T1
     27e:	85 2f       	mov	r24, r21
	mov r25, T3 
     280:	98 2f       	mov	r25, r24
	mov r28, ST30
     282:	cc 2d       	mov	r28, r12
	ld  T0, Y
     284:	48 81       	ld	r20, Y
	eor r25, T0 ; 2, 1, 1, 3 완료
     286:	94 27       	eor	r25, r20

	mov r30, ST01
     288:	e2 2d       	mov	r30, r2
	ld  M0, Z
     28a:	30 81       	ld	r19, Z
	eor T0, M0
     28c:	43 27       	eor	r20, r19
	eor T3, M0
     28e:	83 27       	eor	r24, r19
	eor r25, M0 
     290:	93 27       	eor	r25, r19
	mov r28, ST01
     292:	c2 2d       	mov	r28, r2
	ld  M0, Y
     294:	38 81       	ld	r19, Y
	eor T0, M0
     296:	43 27       	eor	r20, r19
	eor T1, M0 ;3, 2, 2, 1 완료
     298:	53 27       	eor	r21, r19

	mov r30, ST12
     29a:	e6 2d       	mov	r30, r6
	ld  M0, Z
     29c:	30 81       	ld	r19, Z
	eor T0, M0
     29e:	43 27       	eor	r20, r19
	eor T1, M0
     2a0:	53 27       	eor	r21, r19
	eor r25, M0 
     2a2:	93 27       	eor	r25, r19
	mov r28, ST12
     2a4:	c6 2d       	mov	r28, r6
	ld  M0, Y
     2a6:	38 81       	ld	r19, Y
	eor T1, M0
     2a8:	53 27       	eor	r21, r19
	eor T3, M0 ;1, 3, 2, 1 완료
     2aa:	83 27       	eor	r24, r19

	mov r30, ST23
     2ac:	e7 2d       	mov	r30, r7
	ld  M0, Z
     2ae:	30 81       	ld	r19, Z
	eor T0, M0
     2b0:	43 27       	eor	r20, r19
	eor T1, M0
     2b2:	53 27       	eor	r21, r19
	eor T3, M0 
     2b4:	83 27       	eor	r24, r19
	mov r28, ST23
     2b6:	c7 2d       	mov	r28, r7
	ld  M0, Y
     2b8:	38 81       	ld	r19, Y
	eor T3, M0
     2ba:	83 27       	eor	r24, r19
	eor r25, M0 ;1, 1, 3, 2 완료
     2bc:	93 27       	eor	r25, r19

	movw ST30, T0
     2be:	6a 01       	movw	r12, r20
	movw ST32, T3
     2c0:	7c 01       	movw	r14, r24
	movw ST01, M1
     2c2:	18 01       	movw	r2, r16
	movw ST12, T2
     2c4:	3b 01       	movw	r6, r22
	.irp row, 0, 1, 2, 3
		.irp col, 0, 1, 2, 3
			ld r16, X+
			eor ST\row\col, r16
		.endr
	.endr
     2c6:	0d 91       	ld	r16, X+
     2c8:	10 26       	eor	r1, r16
     2ca:	0d 91       	ld	r16, X+
     2cc:	20 26       	eor	r2, r16
     2ce:	0d 91       	ld	r16, X+
     2d0:	30 26       	eor	r3, r16
     2d2:	0d 91       	ld	r16, X+
     2d4:	00 26       	eor	r0, r16
     2d6:	0d 91       	ld	r16, X+
     2d8:	40 26       	eor	r4, r16
     2da:	0d 91       	ld	r16, X+
     2dc:	50 26       	eor	r5, r16
     2de:	0d 91       	ld	r16, X+
     2e0:	60 26       	eor	r6, r16
     2e2:	0d 91       	ld	r16, X+
     2e4:	b0 26       	eor	r11, r16
     2e6:	0d 91       	ld	r16, X+
     2e8:	80 26       	eor	r8, r16
     2ea:	0d 91       	ld	r16, X+
     2ec:	90 26       	eor	r9, r16
     2ee:	0d 91       	ld	r16, X+
     2f0:	a0 26       	eor	r10, r16
     2f2:	0d 91       	ld	r16, X+
     2f4:	70 26       	eor	r7, r16
     2f6:	0d 91       	ld	r16, X+
     2f8:	c0 26       	eor	r12, r16
     2fa:	0d 91       	ld	r16, X+
     2fc:	d0 26       	eor	r13, r16
     2fe:	0d 91       	ld	r16, X+
     300:	e0 26       	eor	r14, r16
     302:	0d 91       	ld	r16, X+
     304:	f0 26       	eor	r15, r16
	
	//2 Round------------------------------------------------------------------------------------------
	
	/* Shift Row and Subbyte , Mixcolumns */
	//! 1번째 열 시작
	mov r30, ST00 
     306:	e1 2d       	mov	r30, r1
	ld  M1, Z 
     308:	00 81       	ld	r16, Z
	mov M2, M1
     30a:	10 2f       	mov	r17, r16
	mov M3, M2 
     30c:	71 2f       	mov	r23, r17
	mov r28, ST00
     30e:	c1 2d       	mov	r28, r1
	ld  M0, Y
     310:	38 81       	ld	r19, Y
	eor M3, M0 ; 2, 1, 1, 3 완료
     312:	73 27       	eor	r23, r19

	mov r30, ST11
     314:	e5 2d       	mov	r30, r5
	ld  T0, Z
     316:	40 81       	ld	r20, Z
	eor M0, T0
     318:	34 27       	eor	r19, r20
	eor M2, T0
     31a:	14 27       	eor	r17, r20
	eor M3, T0 
     31c:	74 27       	eor	r23, r20
	mov r28, ST11
     31e:	c5 2d       	mov	r28, r5
	ld  T0, Y
     320:	48 81       	ld	r20, Y
	eor M0, T0
     322:	34 27       	eor	r19, r20
	eor M1, T0 ;3, 2, 2, 1 완료
     324:	04 27       	eor	r16, r20

	mov r30, ST22
     326:	ea 2d       	mov	r30, r10
	ld  T0, Z
     328:	40 81       	ld	r20, Z
	eor M0, T0
     32a:	34 27       	eor	r19, r20
	eor M1, T0
     32c:	04 27       	eor	r16, r20
	eor M3, T0
     32e:	74 27       	eor	r23, r20
	mov r28, ST22
     330:	ca 2d       	mov	r28, r10
	ld  T0, Y
     332:	48 81       	ld	r20, Y
	eor M1, T0
     334:	04 27       	eor	r16, r20
	eor M2, T0 ;1, 3, 2, 1 완료
     336:	14 27       	eor	r17, r20

	mov r30, ST33
     338:	ef 2d       	mov	r30, r15
	ld  T0, Z
     33a:	40 81       	ld	r20, Z
	eor M0, T0
     33c:	34 27       	eor	r19, r20
	eor M1, T0
     33e:	04 27       	eor	r16, r20
	eor M2, T0 
     340:	14 27       	eor	r17, r20
	mov r28, ST33
     342:	cf 2d       	mov	r28, r15
	ld  T0, Y
     344:	48 81       	ld	r20, Y
	eor M2, T0
     346:	14 27       	eor	r17, r20
	eor M3, T0 ;1, 1, 3, 2 완료
     348:	74 27       	eor	r23, r20

	mov ST00, M0
     34a:	13 2e       	mov	r1, r19
	//! 1번째 열 완료

	//! 2번째 열 시작
	mov r30, ST10 
     34c:	e4 2d       	mov	r30, r4
	ld  T1, Z 
     34e:	50 81       	ld	r21, Z
	mov T2, T1
     350:	65 2f       	mov	r22, r21
	mov T3, T2 
     352:	86 2f       	mov	r24, r22
	mov r28, ST10
     354:	c4 2d       	mov	r28, r4
	ld  T0, Y
     356:	48 81       	ld	r20, Y
	eor T3, T0 ; 2, 1, 1, 3 완료
     358:	84 27       	eor	r24, r20

	mov r30, ST21
     35a:	e9 2d       	mov	r30, r9
	ld  M0, Z
     35c:	30 81       	ld	r19, Z
	eor T0, M0
     35e:	43 27       	eor	r20, r19
	eor T2, M0
     360:	63 27       	eor	r22, r19
	eor T3, M0 
     362:	83 27       	eor	r24, r19
	mov r28, ST21
     364:	c9 2d       	mov	r28, r9
	ld  M0, Y
     366:	38 81       	ld	r19, Y
	eor T0, M0
     368:	43 27       	eor	r20, r19
	eor T1, M0 ;3, 2, 2, 1 완료
     36a:	53 27       	eor	r21, r19

	mov r30, ST32
     36c:	ee 2d       	mov	r30, r14
	ld  M0, Z
     36e:	30 81       	ld	r19, Z
	eor T0, M0
     370:	43 27       	eor	r20, r19
	eor T1, M0
     372:	53 27       	eor	r21, r19
	eor T3, M0 
     374:	83 27       	eor	r24, r19
	mov r28, ST32
     376:	ce 2d       	mov	r28, r14
	ld  M0, Y
     378:	38 81       	ld	r19, Y
	eor T1, M0
     37a:	53 27       	eor	r21, r19
	eor T2, M0 ;1, 3, 2, 1 완료
     37c:	63 27       	eor	r22, r19

	mov r30, ST03
     37e:	e0 2d       	mov	r30, r0
	ld  M0, Z
     380:	30 81       	ld	r19, Z
	eor T0, M0
     382:	43 27       	eor	r20, r19
	eor T1, M0
     384:	53 27       	eor	r21, r19
	eor T2, M0 
     386:	63 27       	eor	r22, r19
	mov r28, ST03
     388:	c0 2d       	mov	r28, r0
	ld  M0, Y
     38a:	38 81       	ld	r19, Y
	eor T2, M0
     38c:	63 27       	eor	r22, r19
	eor T3, M0 ;1, 1, 3, 2 완료
     38e:	83 27       	eor	r24, r19

	movw ST10, T0
     390:	2a 01       	movw	r4, r20
	;mov ST11, T1
	mov ST03, M3
     392:	07 2e       	mov	r0, r23
	//! 2번째 열 완료

	//! 3번째 열 시작
	mov r30, ST20 
     394:	e8 2d       	mov	r30, r8
	ld  T0, Z 
     396:	40 81       	ld	r20, Z
	mov T1, T0
     398:	54 2f       	mov	r21, r20
	mov M3, T1 
     39a:	75 2f       	mov	r23, r21
	mov r28, ST20
     39c:	c8 2d       	mov	r28, r8
	ld  M0, Y
     39e:	38 81       	ld	r19, Y
	eor M3, M0 ; 2, 1, 1, 3 완료
     3a0:	73 27       	eor	r23, r19

	mov r30, ST31
     3a2:	ed 2d       	mov	r30, r13
	ld  r25, Z
     3a4:	90 81       	ld	r25, Z
	eor M0, r25
     3a6:	39 27       	eor	r19, r25
	eor T1, r25
     3a8:	59 27       	eor	r21, r25
	eor M3, r25
     3aa:	79 27       	eor	r23, r25
	mov r28, ST31
     3ac:	cd 2d       	mov	r28, r13
	ld  r25, Y
     3ae:	98 81       	ld	r25, Y
	eor M0, r25
     3b0:	39 27       	eor	r19, r25
	eor T0, r25 ;3, 2, 2, 1 완료
     3b2:	49 27       	eor	r20, r25

	mov r30, ST02
     3b4:	e3 2d       	mov	r30, r3
	ld  r25, Z
     3b6:	90 81       	ld	r25, Z
	eor M0, r25
     3b8:	39 27       	eor	r19, r25
	eor T0, r25
     3ba:	49 27       	eor	r20, r25
	eor M3, r25
     3bc:	79 27       	eor	r23, r25
	mov r28, ST02
     3be:	c3 2d       	mov	r28, r3
	ld  r25, Y
     3c0:	98 81       	ld	r25, Y
	eor T0, r25
     3c2:	49 27       	eor	r20, r25
	eor T1, r25;1, 3, 2, 1 완료
     3c4:	59 27       	eor	r21, r25

	mov r30, ST13
     3c6:	eb 2d       	mov	r30, r11
	ld  r25, Z
     3c8:	90 81       	ld	r25, Z
	eor M0, r25
     3ca:	39 27       	eor	r19, r25
	eor T0, r25
     3cc:	49 27       	eor	r20, r25
	eor T1, r25 
     3ce:	59 27       	eor	r21, r25
	mov r28, ST13
     3d0:	cb 2d       	mov	r28, r11
	ld  r25, Y
     3d2:	98 81       	ld	r25, Y
	eor T1, r25
     3d4:	59 27       	eor	r21, r25
	eor M3, r25 ;1, 1, 3, 2 완료
     3d6:	79 27       	eor	r23, r25

	mov ST20, M0
     3d8:	83 2e       	mov	r8, r19
	mov ST21, T0
     3da:	94 2e       	mov	r9, r20
	mov ST22, T1
     3dc:	a5 2e       	mov	r10, r21
	mov ST13, T3
     3de:	b8 2e       	mov	r11, r24
	//! 3번째 열 완료



	//! 4번째 열 시작
	mov r30, ST30 
     3e0:	ec 2d       	mov	r30, r12
	ld  T1, Z 
     3e2:	50 81       	ld	r21, Z
	mov T3, T1
     3e4:	85 2f       	mov	r24, r21
	mov r25, T3 
     3e6:	98 2f       	mov	r25, r24
	mov r28, ST30
     3e8:	cc 2d       	mov	r28, r12
	ld  T0, Y
     3ea:	48 81       	ld	r20, Y
	eor r25, T0 ; 2, 1, 1, 3 완료
     3ec:	94 27       	eor	r25, r20

	mov r30, ST01
     3ee:	e2 2d       	mov	r30, r2
	ld  M0, Z
     3f0:	30 81       	ld	r19, Z
	eor T0, M0
     3f2:	43 27       	eor	r20, r19
	eor T3, M0
     3f4:	83 27       	eor	r24, r19
	eor r25, M0 
     3f6:	93 27       	eor	r25, r19
	mov r28, ST01
     3f8:	c2 2d       	mov	r28, r2
	ld  M0, Y
     3fa:	38 81       	ld	r19, Y
	eor T0, M0
     3fc:	43 27       	eor	r20, r19
	eor T1, M0 ;3, 2, 2, 1 완료
     3fe:	53 27       	eor	r21, r19

	mov r30, ST12
     400:	e6 2d       	mov	r30, r6
	ld  M0, Z
     402:	30 81       	ld	r19, Z
	eor T0, M0
     404:	43 27       	eor	r20, r19
	eor T1, M0
     406:	53 27       	eor	r21, r19
	eor r25, M0 
     408:	93 27       	eor	r25, r19
	mov r28, ST12
     40a:	c6 2d       	mov	r28, r6
	ld  M0, Y
     40c:	38 81       	ld	r19, Y
	eor T1, M0
     40e:	53 27       	eor	r21, r19
	eor T3, M0 ;1, 3, 2, 1 완료
     410:	83 27       	eor	r24, r19

	mov r30, ST23
     412:	e7 2d       	mov	r30, r7
	ld  M0, Z
     414:	30 81       	ld	r19, Z
	eor T0, M0
     416:	43 27       	eor	r20, r19
	eor T1, M0
     418:	53 27       	eor	r21, r19
	eor T3, M0 
     41a:	83 27       	eor	r24, r19
	mov r28, ST23
     41c:	c7 2d       	mov	r28, r7
	ld  M0, Y
     41e:	38 81       	ld	r19, Y
	eor T3, M0
     420:	83 27       	eor	r24, r19
	eor r25, M0 ;1, 1, 3, 2 완료
     422:	93 27       	eor	r25, r19

	movw ST30, T0
     424:	6a 01       	movw	r12, r20
	movw ST32, T3
     426:	7c 01       	movw	r14, r24
	movw ST01, M1
     428:	18 01       	movw	r2, r16
	movw ST12, T2
     42a:	3b 01       	movw	r6, r22
	.irp row, 0, 1, 2, 3
		.irp col, 0, 1, 2, 3
			ld r16, X+
			eor ST\row\col, r16
		.endr
	.endr
     42c:	0d 91       	ld	r16, X+
     42e:	10 26       	eor	r1, r16
     430:	0d 91       	ld	r16, X+
     432:	20 26       	eor	r2, r16
     434:	0d 91       	ld	r16, X+
     436:	30 26       	eor	r3, r16
     438:	0d 91       	ld	r16, X+
     43a:	00 26       	eor	r0, r16
     43c:	0d 91       	ld	r16, X+
     43e:	40 26       	eor	r4, r16
     440:	0d 91       	ld	r16, X+
     442:	50 26       	eor	r5, r16
     444:	0d 91       	ld	r16, X+
     446:	60 26       	eor	r6, r16
     448:	0d 91       	ld	r16, X+
     44a:	b0 26       	eor	r11, r16
     44c:	0d 91       	ld	r16, X+
     44e:	80 26       	eor	r8, r16
     450:	0d 91       	ld	r16, X+
     452:	90 26       	eor	r9, r16
     454:	0d 91       	ld	r16, X+
     456:	a0 26       	eor	r10, r16
     458:	0d 91       	ld	r16, X+
     45a:	70 26       	eor	r7, r16
     45c:	0d 91       	ld	r16, X+
     45e:	c0 26       	eor	r12, r16
     460:	0d 91       	ld	r16, X+
     462:	d0 26       	eor	r13, r16
     464:	0d 91       	ld	r16, X+
     466:	e0 26       	eor	r14, r16
     468:	0d 91       	ld	r16, X+
     46a:	f0 26       	eor	r15, r16
	
	//3 Round------------------------------------------------------------------------------------------
	
	/* Shift Row and Subbyte , Mixcolumns */
	//! 1번째 열 시작
	mov r30, ST00 
     46c:	e1 2d       	mov	r30, r1
	ld  M1, Z 
     46e:	00 81       	ld	r16, Z
	mov M2, M1
     470:	10 2f       	mov	r17, r16
	mov M3, M2 
     472:	71 2f       	mov	r23, r17
	mov r28, ST00
     474:	c1 2d       	mov	r28, r1
	ld  M0, Y
     476:	38 81       	ld	r19, Y
	eor M3, M0 ; 2, 1, 1, 3 완료
     478:	73 27       	eor	r23, r19

	mov r30, ST11
     47a:	e5 2d       	mov	r30, r5
	ld  T0, Z
     47c:	40 81       	ld	r20, Z
	eor M0, T0
     47e:	34 27       	eor	r19, r20
	eor M2, T0
     480:	14 27       	eor	r17, r20
	eor M3, T0 
     482:	74 27       	eor	r23, r20
	mov r28, ST11
     484:	c5 2d       	mov	r28, r5
	ld  T0, Y
     486:	48 81       	ld	r20, Y
	eor M0, T0
     488:	34 27       	eor	r19, r20
	eor M1, T0 ;3, 2, 2, 1 완료
     48a:	04 27       	eor	r16, r20

	mov r30, ST22
     48c:	ea 2d       	mov	r30, r10
	ld  T0, Z
     48e:	40 81       	ld	r20, Z
	eor M0, T0
     490:	34 27       	eor	r19, r20
	eor M1, T0
     492:	04 27       	eor	r16, r20
	eor M3, T0
     494:	74 27       	eor	r23, r20
	mov r28, ST22
     496:	ca 2d       	mov	r28, r10
	ld  T0, Y
     498:	48 81       	ld	r20, Y
	eor M1, T0
     49a:	04 27       	eor	r16, r20
	eor M2, T0 ;1, 3, 2, 1 완료
     49c:	14 27       	eor	r17, r20

	mov r30, ST33
     49e:	ef 2d       	mov	r30, r15
	ld  T0, Z
     4a0:	40 81       	ld	r20, Z
	eor M0, T0
     4a2:	34 27       	eor	r19, r20
	eor M1, T0
     4a4:	04 27       	eor	r16, r20
	eor M2, T0 
     4a6:	14 27       	eor	r17, r20
	mov r28, ST33
     4a8:	cf 2d       	mov	r28, r15
	ld  T0, Y
     4aa:	48 81       	ld	r20, Y
	eor M2, T0
     4ac:	14 27       	eor	r17, r20
	eor M3, T0 ;1, 1, 3, 2 완료
     4ae:	74 27       	eor	r23, r20

	mov ST00, M0
     4b0:	13 2e       	mov	r1, r19
	//! 1번째 열 완료

	//! 2번째 열 시작
	mov r30, ST10 
     4b2:	e4 2d       	mov	r30, r4
	ld  T1, Z 
     4b4:	50 81       	ld	r21, Z
	mov T2, T1
     4b6:	65 2f       	mov	r22, r21
	mov T3, T2 
     4b8:	86 2f       	mov	r24, r22
	mov r28, ST10
     4ba:	c4 2d       	mov	r28, r4
	ld  T0, Y
     4bc:	48 81       	ld	r20, Y
	eor T3, T0 ; 2, 1, 1, 3 완료
     4be:	84 27       	eor	r24, r20

	mov r30, ST21
     4c0:	e9 2d       	mov	r30, r9
	ld  M0, Z
     4c2:	30 81       	ld	r19, Z
	eor T0, M0
     4c4:	43 27       	eor	r20, r19
	eor T2, M0
     4c6:	63 27       	eor	r22, r19
	eor T3, M0 
     4c8:	83 27       	eor	r24, r19
	mov r28, ST21
     4ca:	c9 2d       	mov	r28, r9
	ld  M0, Y
     4cc:	38 81       	ld	r19, Y
	eor T0, M0
     4ce:	43 27       	eor	r20, r19
	eor T1, M0 ;3, 2, 2, 1 완료
     4d0:	53 27       	eor	r21, r19

	mov r30, ST32
     4d2:	ee 2d       	mov	r30, r14
	ld  M0, Z
     4d4:	30 81       	ld	r19, Z
	eor T0, M0
     4d6:	43 27       	eor	r20, r19
	eor T1, M0
     4d8:	53 27       	eor	r21, r19
	eor T3, M0 
     4da:	83 27       	eor	r24, r19
	mov r28, ST32
     4dc:	ce 2d       	mov	r28, r14
	ld  M0, Y
     4de:	38 81       	ld	r19, Y
	eor T1, M0
     4e0:	53 27       	eor	r21, r19
	eor T2, M0 ;1, 3, 2, 1 완료
     4e2:	63 27       	eor	r22, r19

	mov r30, ST03
     4e4:	e0 2d       	mov	r30, r0
	ld  M0, Z
     4e6:	30 81       	ld	r19, Z
	eor T0, M0
     4e8:	43 27       	eor	r20, r19
	eor T1, M0
     4ea:	53 27       	eor	r21, r19
	eor T2, M0 
     4ec:	63 27       	eor	r22, r19
	mov r28, ST03
     4ee:	c0 2d       	mov	r28, r0
	ld  M0, Y
     4f0:	38 81       	ld	r19, Y
	eor T2, M0
     4f2:	63 27       	eor	r22, r19
	eor T3, M0 ;1, 1, 3, 2 완료
     4f4:	83 27       	eor	r24, r19

	movw ST10, T0
     4f6:	2a 01       	movw	r4, r20
	;mov ST11, T1
	mov ST03, M3
     4f8:	07 2e       	mov	r0, r23
	//! 2번째 열 완료

	//! 3번째 열 시작
	mov r30, ST20 
     4fa:	e8 2d       	mov	r30, r8
	ld  T0, Z 
     4fc:	40 81       	ld	r20, Z
	mov T1, T0
     4fe:	54 2f       	mov	r21, r20
	mov M3, T1 
     500:	75 2f       	mov	r23, r21
	mov r28, ST20
     502:	c8 2d       	mov	r28, r8
	ld  M0, Y
     504:	38 81       	ld	r19, Y
	eor M3, M0 ; 2, 1, 1, 3 완료
     506:	73 27       	eor	r23, r19

	mov r30, ST31
     508:	ed 2d       	mov	r30, r13
	ld  r25, Z
     50a:	90 81       	ld	r25, Z
	eor M0, r25
     50c:	39 27       	eor	r19, r25
	eor T1, r25
     50e:	59 27       	eor	r21, r25
	eor M3, r25
     510:	79 27       	eor	r23, r25
	mov r28, ST31
     512:	cd 2d       	mov	r28, r13
	ld  r25, Y
     514:	98 81       	ld	r25, Y
	eor M0, r25
     516:	39 27       	eor	r19, r25
	eor T0, r25 ;3, 2, 2, 1 완료
     518:	49 27       	eor	r20, r25

	mov r30, ST02
     51a:	e3 2d       	mov	r30, r3
	ld  r25, Z
     51c:	90 81       	ld	r25, Z
	eor M0, r25
     51e:	39 27       	eor	r19, r25
	eor T0, r25
     520:	49 27       	eor	r20, r25
	eor M3, r25
     522:	79 27       	eor	r23, r25
	mov r28, ST02
     524:	c3 2d       	mov	r28, r3
	ld  r25, Y
     526:	98 81       	ld	r25, Y
	eor T0, r25
     528:	49 27       	eor	r20, r25
	eor T1, r25;1, 3, 2, 1 완료
     52a:	59 27       	eor	r21, r25

	mov r30, ST13
     52c:	eb 2d       	mov	r30, r11
	ld  r25, Z
     52e:	90 81       	ld	r25, Z
	eor M0, r25
     530:	39 27       	eor	r19, r25
	eor T0, r25
     532:	49 27       	eor	r20, r25
	eor T1, r25 
     534:	59 27       	eor	r21, r25
	mov r28, ST13
     536:	cb 2d       	mov	r28, r11
	ld  r25, Y
     538:	98 81       	ld	r25, Y
	eor T1, r25
     53a:	59 27       	eor	r21, r25
	eor M3, r25 ;1, 1, 3, 2 완료
     53c:	79 27       	eor	r23, r25

	mov ST20, M0
     53e:	83 2e       	mov	r8, r19
	mov ST21, T0
     540:	94 2e       	mov	r9, r20
	mov ST22, T1
     542:	a5 2e       	mov	r10, r21
	mov ST13, T3
     544:	b8 2e       	mov	r11, r24
	//! 3번째 열 완료



	//! 4번째 열 시작
	mov r30, ST30 
     546:	ec 2d       	mov	r30, r12
	ld  T1, Z 
     548:	50 81       	ld	r21, Z
	mov T3, T1
     54a:	85 2f       	mov	r24, r21
	mov r25, T3 
     54c:	98 2f       	mov	r25, r24
	mov r28, ST30
     54e:	cc 2d       	mov	r28, r12
	ld  T0, Y
     550:	48 81       	ld	r20, Y
	eor r25, T0 ; 2, 1, 1, 3 완료
     552:	94 27       	eor	r25, r20

	mov r30, ST01
     554:	e2 2d       	mov	r30, r2
	ld  M0, Z
     556:	30 81       	ld	r19, Z
	eor T0, M0
     558:	43 27       	eor	r20, r19
	eor T3, M0
     55a:	83 27       	eor	r24, r19
	eor r25, M0 
     55c:	93 27       	eor	r25, r19
	mov r28, ST01
     55e:	c2 2d       	mov	r28, r2
	ld  M0, Y
     560:	38 81       	ld	r19, Y
	eor T0, M0
     562:	43 27       	eor	r20, r19
	eor T1, M0 ;3, 2, 2, 1 완료
     564:	53 27       	eor	r21, r19

	mov r30, ST12
     566:	e6 2d       	mov	r30, r6
	ld  M0, Z
     568:	30 81       	ld	r19, Z
	eor T0, M0
     56a:	43 27       	eor	r20, r19
	eor T1, M0
     56c:	53 27       	eor	r21, r19
	eor r25, M0 
     56e:	93 27       	eor	r25, r19
	mov r28, ST12
     570:	c6 2d       	mov	r28, r6
	ld  M0, Y
     572:	38 81       	ld	r19, Y
	eor T1, M0
     574:	53 27       	eor	r21, r19
	eor T3, M0 ;1, 3, 2, 1 완료
     576:	83 27       	eor	r24, r19

	mov r30, ST23
     578:	e7 2d       	mov	r30, r7
	ld  M0, Z
     57a:	30 81       	ld	r19, Z
	eor T0, M0
     57c:	43 27       	eor	r20, r19
	eor T1, M0
     57e:	53 27       	eor	r21, r19
	eor T3, M0 
     580:	83 27       	eor	r24, r19
	mov r28, ST23
     582:	c7 2d       	mov	r28, r7
	ld  M0, Y
     584:	38 81       	ld	r19, Y
	eor T3, M0
     586:	83 27       	eor	r24, r19
	eor r25, M0 ;1, 1, 3, 2 완료
     588:	93 27       	eor	r25, r19

	movw ST30, T0
     58a:	6a 01       	movw	r12, r20
	movw ST32, T3
     58c:	7c 01       	movw	r14, r24
	movw ST01, M1
     58e:	18 01       	movw	r2, r16
	movw ST12, T2
     590:	3b 01       	movw	r6, r22
	.irp row, 0, 1, 2, 3
		.irp col, 0, 1, 2, 3
			ld r16, X+
			eor ST\row\col, r16
		.endr
	.endr
     592:	0d 91       	ld	r16, X+
     594:	10 26       	eor	r1, r16
     596:	0d 91       	ld	r16, X+
     598:	20 26       	eor	r2, r16
     59a:	0d 91       	ld	r16, X+
     59c:	30 26       	eor	r3, r16
     59e:	0d 91       	ld	r16, X+
     5a0:	00 26       	eor	r0, r16
     5a2:	0d 91       	ld	r16, X+
     5a4:	40 26       	eor	r4, r16
     5a6:	0d 91       	ld	r16, X+
     5a8:	50 26       	eor	r5, r16
     5aa:	0d 91       	ld	r16, X+
     5ac:	60 26       	eor	r6, r16
     5ae:	0d 91       	ld	r16, X+
     5b0:	b0 26       	eor	r11, r16
     5b2:	0d 91       	ld	r16, X+
     5b4:	80 26       	eor	r8, r16
     5b6:	0d 91       	ld	r16, X+
     5b8:	90 26       	eor	r9, r16
     5ba:	0d 91       	ld	r16, X+
     5bc:	a0 26       	eor	r10, r16
     5be:	0d 91       	ld	r16, X+
     5c0:	70 26       	eor	r7, r16
     5c2:	0d 91       	ld	r16, X+
     5c4:	c0 26       	eor	r12, r16
     5c6:	0d 91       	ld	r16, X+
     5c8:	d0 26       	eor	r13, r16
     5ca:	0d 91       	ld	r16, X+
     5cc:	e0 26       	eor	r14, r16
     5ce:	0d 91       	ld	r16, X+
     5d0:	f0 26       	eor	r15, r16
	
	//4 Round------------------------------------------------------------------------------------------
	
	/* Shift Row and Subbyte , Mixcolumns */
	//! 1번째 열 시작
	mov r30, ST00 
     5d2:	e1 2d       	mov	r30, r1
	ld  M1, Z 
     5d4:	00 81       	ld	r16, Z
	mov M2, M1
     5d6:	10 2f       	mov	r17, r16
	mov M3, M2 
     5d8:	71 2f       	mov	r23, r17
	mov r28, ST00
     5da:	c1 2d       	mov	r28, r1
	ld  M0, Y
     5dc:	38 81       	ld	r19, Y
	eor M3, M0 ; 2, 1, 1, 3 완료
     5de:	73 27       	eor	r23, r19

	mov r30, ST11
     5e0:	e5 2d       	mov	r30, r5
	ld  T0, Z
     5e2:	40 81       	ld	r20, Z
	eor M0, T0
     5e4:	34 27       	eor	r19, r20
	eor M2, T0
     5e6:	14 27       	eor	r17, r20
	eor M3, T0 
     5e8:	74 27       	eor	r23, r20
	mov r28, ST11
     5ea:	c5 2d       	mov	r28, r5
	ld  T0, Y
     5ec:	48 81       	ld	r20, Y
	eor M0, T0
     5ee:	34 27       	eor	r19, r20
	eor M1, T0 ;3, 2, 2, 1 완료
     5f0:	04 27       	eor	r16, r20

	mov r30, ST22
     5f2:	ea 2d       	mov	r30, r10
	ld  T0, Z
     5f4:	40 81       	ld	r20, Z
	eor M0, T0
     5f6:	34 27       	eor	r19, r20
	eor M1, T0
     5f8:	04 27       	eor	r16, r20
	eor M3, T0
     5fa:	74 27       	eor	r23, r20
	mov r28, ST22
     5fc:	ca 2d       	mov	r28, r10
	ld  T0, Y
     5fe:	48 81       	ld	r20, Y
	eor M1, T0
     600:	04 27       	eor	r16, r20
	eor M2, T0 ;1, 3, 2, 1 완료
     602:	14 27       	eor	r17, r20

	mov r30, ST33
     604:	ef 2d       	mov	r30, r15
	ld  T0, Z
     606:	40 81       	ld	r20, Z
	eor M0, T0
     608:	34 27       	eor	r19, r20
	eor M1, T0
     60a:	04 27       	eor	r16, r20
	eor M2, T0 
     60c:	14 27       	eor	r17, r20
	mov r28, ST33
     60e:	cf 2d       	mov	r28, r15
	ld  T0, Y
     610:	48 81       	ld	r20, Y
	eor M2, T0
     612:	14 27       	eor	r17, r20
	eor M3, T0 ;1, 1, 3, 2 완료
     614:	74 27       	eor	r23, r20

	mov ST00, M0
     616:	13 2e       	mov	r1, r19
	//! 1번째 열 완료

	//! 2번째 열 시작
	mov r30, ST10 
     618:	e4 2d       	mov	r30, r4
	ld  T1, Z 
     61a:	50 81       	ld	r21, Z
	mov T2, T1
     61c:	65 2f       	mov	r22, r21
	mov T3, T2 
     61e:	86 2f       	mov	r24, r22
	mov r28, ST10
     620:	c4 2d       	mov	r28, r4
	ld  T0, Y
     622:	48 81       	ld	r20, Y
	eor T3, T0 ; 2, 1, 1, 3 완료
     624:	84 27       	eor	r24, r20

	mov r30, ST21
     626:	e9 2d       	mov	r30, r9
	ld  M0, Z
     628:	30 81       	ld	r19, Z
	eor T0, M0
     62a:	43 27       	eor	r20, r19
	eor T2, M0
     62c:	63 27       	eor	r22, r19
	eor T3, M0 
     62e:	83 27       	eor	r24, r19
	mov r28, ST21
     630:	c9 2d       	mov	r28, r9
	ld  M0, Y
     632:	38 81       	ld	r19, Y
	eor T0, M0
     634:	43 27       	eor	r20, r19
	eor T1, M0 ;3, 2, 2, 1 완료
     636:	53 27       	eor	r21, r19

	mov r30, ST32
     638:	ee 2d       	mov	r30, r14
	ld  M0, Z
     63a:	30 81       	ld	r19, Z
	eor T0, M0
     63c:	43 27       	eor	r20, r19
	eor T1, M0
     63e:	53 27       	eor	r21, r19
	eor T3, M0 
     640:	83 27       	eor	r24, r19
	mov r28, ST32
     642:	ce 2d       	mov	r28, r14
	ld  M0, Y
     644:	38 81       	ld	r19, Y
	eor T1, M0
     646:	53 27       	eor	r21, r19
	eor T2, M0 ;1, 3, 2, 1 완료
     648:	63 27       	eor	r22, r19

	mov r30, ST03
     64a:	e0 2d       	mov	r30, r0
	ld  M0, Z
     64c:	30 81       	ld	r19, Z
	eor T0, M0
     64e:	43 27       	eor	r20, r19
	eor T1, M0
     650:	53 27       	eor	r21, r19
	eor T2, M0 
     652:	63 27       	eor	r22, r19
	mov r28, ST03
     654:	c0 2d       	mov	r28, r0
	ld  M0, Y
     656:	38 81       	ld	r19, Y
	eor T2, M0
     658:	63 27       	eor	r22, r19
	eor T3, M0 ;1, 1, 3, 2 완료
     65a:	83 27       	eor	r24, r19

	movw ST10, T0
     65c:	2a 01       	movw	r4, r20
	;mov ST11, T1
	mov ST03, M3
     65e:	07 2e       	mov	r0, r23
	//! 2번째 열 완료

	//! 3번째 열 시작
	mov r30, ST20 
     660:	e8 2d       	mov	r30, r8
	ld  T0, Z 
     662:	40 81       	ld	r20, Z
	mov T1, T0
     664:	54 2f       	mov	r21, r20
	mov M3, T1 
     666:	75 2f       	mov	r23, r21
	mov r28, ST20
     668:	c8 2d       	mov	r28, r8
	ld  M0, Y
     66a:	38 81       	ld	r19, Y
	eor M3, M0 ; 2, 1, 1, 3 완료
     66c:	73 27       	eor	r23, r19

	mov r30, ST31
     66e:	ed 2d       	mov	r30, r13
	ld  r25, Z
     670:	90 81       	ld	r25, Z
	eor M0, r25
     672:	39 27       	eor	r19, r25
	eor T1, r25
     674:	59 27       	eor	r21, r25
	eor M3, r25
     676:	79 27       	eor	r23, r25
	mov r28, ST31
     678:	cd 2d       	mov	r28, r13
	ld  r25, Y
     67a:	98 81       	ld	r25, Y
	eor M0, r25
     67c:	39 27       	eor	r19, r25
	eor T0, r25 ;3, 2, 2, 1 완료
     67e:	49 27       	eor	r20, r25

	mov r30, ST02
     680:	e3 2d       	mov	r30, r3
	ld  r25, Z
     682:	90 81       	ld	r25, Z
	eor M0, r25
     684:	39 27       	eor	r19, r25
	eor T0, r25
     686:	49 27       	eor	r20, r25
	eor M3, r25
     688:	79 27       	eor	r23, r25
	mov r28, ST02
     68a:	c3 2d       	mov	r28, r3
	ld  r25, Y
     68c:	98 81       	ld	r25, Y
	eor T0, r25
     68e:	49 27       	eor	r20, r25
	eor T1, r25;1, 3, 2, 1 완료
     690:	59 27       	eor	r21, r25

	mov r30, ST13
     692:	eb 2d       	mov	r30, r11
	ld  r25, Z
     694:	90 81       	ld	r25, Z
	eor M0, r25
     696:	39 27       	eor	r19, r25
	eor T0, r25
     698:	49 27       	eor	r20, r25
	eor T1, r25 
     69a:	59 27       	eor	r21, r25
	mov r28, ST13
     69c:	cb 2d       	mov	r28, r11
	ld  r25, Y
     69e:	98 81       	ld	r25, Y
	eor T1, r25
     6a0:	59 27       	eor	r21, r25
	eor M3, r25 ;1, 1, 3, 2 완료
     6a2:	79 27       	eor	r23, r25

	mov ST20, M0
     6a4:	83 2e       	mov	r8, r19
	mov ST21, T0
     6a6:	94 2e       	mov	r9, r20
	mov ST22, T1
     6a8:	a5 2e       	mov	r10, r21
	mov ST13, T3
     6aa:	b8 2e       	mov	r11, r24
	//! 3번째 열 완료



	//! 4번째 열 시작
	mov r30, ST30 
     6ac:	ec 2d       	mov	r30, r12
	ld  T1, Z 
     6ae:	50 81       	ld	r21, Z
	mov T3, T1
     6b0:	85 2f       	mov	r24, r21
	mov r25, T3 
     6b2:	98 2f       	mov	r25, r24
	mov r28, ST30
     6b4:	cc 2d       	mov	r28, r12
	ld  T0, Y
     6b6:	48 81       	ld	r20, Y
	eor r25, T0 ; 2, 1, 1, 3 완료
     6b8:	94 27       	eor	r25, r20

	mov r30, ST01
     6ba:	e2 2d       	mov	r30, r2
	ld  M0, Z
     6bc:	30 81       	ld	r19, Z
	eor T0, M0
     6be:	43 27       	eor	r20, r19
	eor T3, M0
     6c0:	83 27       	eor	r24, r19
	eor r25, M0 
     6c2:	93 27       	eor	r25, r19
	mov r28, ST01
     6c4:	c2 2d       	mov	r28, r2
	ld  M0, Y
     6c6:	38 81       	ld	r19, Y
	eor T0, M0
     6c8:	43 27       	eor	r20, r19
	eor T1, M0 ;3, 2, 2, 1 완료
     6ca:	53 27       	eor	r21, r19

	mov r30, ST12
     6cc:	e6 2d       	mov	r30, r6
	ld  M0, Z
     6ce:	30 81       	ld	r19, Z
	eor T0, M0
     6d0:	43 27       	eor	r20, r19
	eor T1, M0
     6d2:	53 27       	eor	r21, r19
	eor r25, M0 
     6d4:	93 27       	eor	r25, r19
	mov r28, ST12
     6d6:	c6 2d       	mov	r28, r6
	ld  M0, Y
     6d8:	38 81       	ld	r19, Y
	eor T1, M0
     6da:	53 27       	eor	r21, r19
	eor T3, M0 ;1, 3, 2, 1 완료
     6dc:	83 27       	eor	r24, r19

	mov r30, ST23
     6de:	e7 2d       	mov	r30, r7
	ld  M0, Z
     6e0:	30 81       	ld	r19, Z
	eor T0, M0
     6e2:	43 27       	eor	r20, r19
	eor T1, M0
     6e4:	53 27       	eor	r21, r19
	eor T3, M0 
     6e6:	83 27       	eor	r24, r19
	mov r28, ST23
     6e8:	c7 2d       	mov	r28, r7
	ld  M0, Y
     6ea:	38 81       	ld	r19, Y
	eor T3, M0
     6ec:	83 27       	eor	r24, r19
	eor r25, M0 ;1, 1, 3, 2 완료
     6ee:	93 27       	eor	r25, r19

	movw ST30, T0
     6f0:	6a 01       	movw	r12, r20
	movw ST32, T3
     6f2:	7c 01       	movw	r14, r24
	movw ST01, M1
     6f4:	18 01       	movw	r2, r16
	movw ST12, T2
     6f6:	3b 01       	movw	r6, r22
	.irp row, 0, 1, 2, 3
		.irp col, 0, 1, 2, 3
			ld r16, X+
			eor ST\row\col, r16
		.endr
	.endr
     6f8:	0d 91       	ld	r16, X+
     6fa:	10 26       	eor	r1, r16
     6fc:	0d 91       	ld	r16, X+
     6fe:	20 26       	eor	r2, r16
     700:	0d 91       	ld	r16, X+
     702:	30 26       	eor	r3, r16
     704:	0d 91       	ld	r16, X+
     706:	00 26       	eor	r0, r16
     708:	0d 91       	ld	r16, X+
     70a:	40 26       	eor	r4, r16
     70c:	0d 91       	ld	r16, X+
     70e:	50 26       	eor	r5, r16
     710:	0d 91       	ld	r16, X+
     712:	60 26       	eor	r6, r16
     714:	0d 91       	ld	r16, X+
     716:	b0 26       	eor	r11, r16
     718:	0d 91       	ld	r16, X+
     71a:	80 26       	eor	r8, r16
     71c:	0d 91       	ld	r16, X+
     71e:	90 26       	eor	r9, r16
     720:	0d 91       	ld	r16, X+
     722:	a0 26       	eor	r10, r16
     724:	0d 91       	ld	r16, X+
     726:	70 26       	eor	r7, r16
     728:	0d 91       	ld	r16, X+
     72a:	c0 26       	eor	r12, r16
     72c:	0d 91       	ld	r16, X+
     72e:	d0 26       	eor	r13, r16
     730:	0d 91       	ld	r16, X+
     732:	e0 26       	eor	r14, r16
     734:	0d 91       	ld	r16, X+
     736:	f0 26       	eor	r15, r16
	
	//5 Round------------------------------------------------------------------------------------------
	
	/* Shift Row and Subbyte , Mixcolumns */
	//! 1번째 열 시작
	mov r30, ST00 
     738:	e1 2d       	mov	r30, r1
	ld  M1, Z 
     73a:	00 81       	ld	r16, Z
	mov M2, M1
     73c:	10 2f       	mov	r17, r16
	mov M3, M2 
     73e:	71 2f       	mov	r23, r17
	mov r28, ST00
     740:	c1 2d       	mov	r28, r1
	ld  M0, Y
     742:	38 81       	ld	r19, Y
	eor M3, M0 ; 2, 1, 1, 3 완료
     744:	73 27       	eor	r23, r19

	mov r30, ST11
     746:	e5 2d       	mov	r30, r5
	ld  T0, Z
     748:	40 81       	ld	r20, Z
	eor M0, T0
     74a:	34 27       	eor	r19, r20
	eor M2, T0
     74c:	14 27       	eor	r17, r20
	eor M3, T0 
     74e:	74 27       	eor	r23, r20
	mov r28, ST11
     750:	c5 2d       	mov	r28, r5
	ld  T0, Y
     752:	48 81       	ld	r20, Y
	eor M0, T0
     754:	34 27       	eor	r19, r20
	eor M1, T0 ;3, 2, 2, 1 완료
     756:	04 27       	eor	r16, r20

	mov r30, ST22
     758:	ea 2d       	mov	r30, r10
	ld  T0, Z
     75a:	40 81       	ld	r20, Z
	eor M0, T0
     75c:	34 27       	eor	r19, r20
	eor M1, T0
     75e:	04 27       	eor	r16, r20
	eor M3, T0
     760:	74 27       	eor	r23, r20
	mov r28, ST22
     762:	ca 2d       	mov	r28, r10
	ld  T0, Y
     764:	48 81       	ld	r20, Y
	eor M1, T0
     766:	04 27       	eor	r16, r20
	eor M2, T0 ;1, 3, 2, 1 완료
     768:	14 27       	eor	r17, r20

	mov r30, ST33
     76a:	ef 2d       	mov	r30, r15
	ld  T0, Z
     76c:	40 81       	ld	r20, Z
	eor M0, T0
     76e:	34 27       	eor	r19, r20
	eor M1, T0
     770:	04 27       	eor	r16, r20
	eor M2, T0 
     772:	14 27       	eor	r17, r20
	mov r28, ST33
     774:	cf 2d       	mov	r28, r15
	ld  T0, Y
     776:	48 81       	ld	r20, Y
	eor M2, T0
     778:	14 27       	eor	r17, r20
	eor M3, T0 ;1, 1, 3, 2 완료
     77a:	74 27       	eor	r23, r20

	mov ST00, M0
     77c:	13 2e       	mov	r1, r19
	//! 1번째 열 완료

	//! 2번째 열 시작
	mov r30, ST10 
     77e:	e4 2d       	mov	r30, r4
	ld  T1, Z 
     780:	50 81       	ld	r21, Z
	mov T2, T1
     782:	65 2f       	mov	r22, r21
	mov T3, T2 
     784:	86 2f       	mov	r24, r22
	mov r28, ST10
     786:	c4 2d       	mov	r28, r4
	ld  T0, Y
     788:	48 81       	ld	r20, Y
	eor T3, T0 ; 2, 1, 1, 3 완료
     78a:	84 27       	eor	r24, r20

	mov r30, ST21
     78c:	e9 2d       	mov	r30, r9
	ld  M0, Z
     78e:	30 81       	ld	r19, Z
	eor T0, M0
     790:	43 27       	eor	r20, r19
	eor T2, M0
     792:	63 27       	eor	r22, r19
	eor T3, M0 
     794:	83 27       	eor	r24, r19
	mov r28, ST21
     796:	c9 2d       	mov	r28, r9
	ld  M0, Y
     798:	38 81       	ld	r19, Y
	eor T0, M0
     79a:	43 27       	eor	r20, r19
	eor T1, M0 ;3, 2, 2, 1 완료
     79c:	53 27       	eor	r21, r19

	mov r30, ST32
     79e:	ee 2d       	mov	r30, r14
	ld  M0, Z
     7a0:	30 81       	ld	r19, Z
	eor T0, M0
     7a2:	43 27       	eor	r20, r19
	eor T1, M0
     7a4:	53 27       	eor	r21, r19
	eor T3, M0 
     7a6:	83 27       	eor	r24, r19
	mov r28, ST32
     7a8:	ce 2d       	mov	r28, r14
	ld  M0, Y
     7aa:	38 81       	ld	r19, Y
	eor T1, M0
     7ac:	53 27       	eor	r21, r19
	eor T2, M0 ;1, 3, 2, 1 완료
     7ae:	63 27       	eor	r22, r19

	mov r30, ST03
     7b0:	e0 2d       	mov	r30, r0
	ld  M0, Z
     7b2:	30 81       	ld	r19, Z
	eor T0, M0
     7b4:	43 27       	eor	r20, r19
	eor T1, M0
     7b6:	53 27       	eor	r21, r19
	eor T2, M0 
     7b8:	63 27       	eor	r22, r19
	mov r28, ST03
     7ba:	c0 2d       	mov	r28, r0
	ld  M0, Y
     7bc:	38 81       	ld	r19, Y
	eor T2, M0
     7be:	63 27       	eor	r22, r19
	eor T3, M0 ;1, 1, 3, 2 완료
     7c0:	83 27       	eor	r24, r19

	movw ST10, T0
     7c2:	2a 01       	movw	r4, r20
	;mov ST11, T1
	mov ST03, M3
     7c4:	07 2e       	mov	r0, r23
	//! 2번째 열 완료

	//! 3번째 열 시작
	mov r30, ST20 
     7c6:	e8 2d       	mov	r30, r8
	ld  T0, Z 
     7c8:	40 81       	ld	r20, Z
	mov T1, T0
     7ca:	54 2f       	mov	r21, r20
	mov M3, T1 
     7cc:	75 2f       	mov	r23, r21
	mov r28, ST20
     7ce:	c8 2d       	mov	r28, r8
	ld  M0, Y
     7d0:	38 81       	ld	r19, Y
	eor M3, M0 ; 2, 1, 1, 3 완료
     7d2:	73 27       	eor	r23, r19

	mov r30, ST31
     7d4:	ed 2d       	mov	r30, r13
	ld  r25, Z
     7d6:	90 81       	ld	r25, Z
	eor M0, r25
     7d8:	39 27       	eor	r19, r25
	eor T1, r25
     7da:	59 27       	eor	r21, r25
	eor M3, r25
     7dc:	79 27       	eor	r23, r25
	mov r28, ST31
     7de:	cd 2d       	mov	r28, r13
	ld  r25, Y
     7e0:	98 81       	ld	r25, Y
	eor M0, r25
     7e2:	39 27       	eor	r19, r25
	eor T0, r25 ;3, 2, 2, 1 완료
     7e4:	49 27       	eor	r20, r25

	mov r30, ST02
     7e6:	e3 2d       	mov	r30, r3
	ld  r25, Z
     7e8:	90 81       	ld	r25, Z
	eor M0, r25
     7ea:	39 27       	eor	r19, r25
	eor T0, r25
     7ec:	49 27       	eor	r20, r25
	eor M3, r25
     7ee:	79 27       	eor	r23, r25
	mov r28, ST02
     7f0:	c3 2d       	mov	r28, r3
	ld  r25, Y
     7f2:	98 81       	ld	r25, Y
	eor T0, r25
     7f4:	49 27       	eor	r20, r25
	eor T1, r25;1, 3, 2, 1 완료
     7f6:	59 27       	eor	r21, r25

	mov r30, ST13
     7f8:	eb 2d       	mov	r30, r11
	ld  r25, Z
     7fa:	90 81       	ld	r25, Z
	eor M0, r25
     7fc:	39 27       	eor	r19, r25
	eor T0, r25
     7fe:	49 27       	eor	r20, r25
	eor T1, r25 
     800:	59 27       	eor	r21, r25
	mov r28, ST13
     802:	cb 2d       	mov	r28, r11
	ld  r25, Y
     804:	98 81       	ld	r25, Y
	eor T1, r25
     806:	59 27       	eor	r21, r25
	eor M3, r25 ;1, 1, 3, 2 완료
     808:	79 27       	eor	r23, r25

	mov ST20, M0
     80a:	83 2e       	mov	r8, r19
	mov ST21, T0
     80c:	94 2e       	mov	r9, r20
	mov ST22, T1
     80e:	a5 2e       	mov	r10, r21
	mov ST13, T3
     810:	b8 2e       	mov	r11, r24
	//! 3번째 열 완료



	//! 4번째 열 시작
	mov r30, ST30 
     812:	ec 2d       	mov	r30, r12
	ld  T1, Z 
     814:	50 81       	ld	r21, Z
	mov T3, T1
     816:	85 2f       	mov	r24, r21
	mov r25, T3 
     818:	98 2f       	mov	r25, r24
	mov r28, ST30
     81a:	cc 2d       	mov	r28, r12
	ld  T0, Y
     81c:	48 81       	ld	r20, Y
	eor r25, T0 ; 2, 1, 1, 3 완료
     81e:	94 27       	eor	r25, r20

	mov r30, ST01
     820:	e2 2d       	mov	r30, r2
	ld  M0, Z
     822:	30 81       	ld	r19, Z
	eor T0, M0
     824:	43 27       	eor	r20, r19
	eor T3, M0
     826:	83 27       	eor	r24, r19
	eor r25, M0 
     828:	93 27       	eor	r25, r19
	mov r28, ST01
     82a:	c2 2d       	mov	r28, r2
	ld  M0, Y
     82c:	38 81       	ld	r19, Y
	eor T0, M0
     82e:	43 27       	eor	r20, r19
	eor T1, M0 ;3, 2, 2, 1 완료
     830:	53 27       	eor	r21, r19

	mov r30, ST12
     832:	e6 2d       	mov	r30, r6
	ld  M0, Z
     834:	30 81       	ld	r19, Z
	eor T0, M0
     836:	43 27       	eor	r20, r19
	eor T1, M0
     838:	53 27       	eor	r21, r19
	eor r25, M0 
     83a:	93 27       	eor	r25, r19
	mov r28, ST12
     83c:	c6 2d       	mov	r28, r6
	ld  M0, Y
     83e:	38 81       	ld	r19, Y
	eor T1, M0
     840:	53 27       	eor	r21, r19
	eor T3, M0 ;1, 3, 2, 1 완료
     842:	83 27       	eor	r24, r19

	mov r30, ST23
     844:	e7 2d       	mov	r30, r7
	ld  M0, Z
     846:	30 81       	ld	r19, Z
	eor T0, M0
     848:	43 27       	eor	r20, r19
	eor T1, M0
     84a:	53 27       	eor	r21, r19
	eor T3, M0 
     84c:	83 27       	eor	r24, r19
	mov r28, ST23
     84e:	c7 2d       	mov	r28, r7
	ld  M0, Y
     850:	38 81       	ld	r19, Y
	eor T3, M0
     852:	83 27       	eor	r24, r19
	eor r25, M0 ;1, 1, 3, 2 완료
     854:	93 27       	eor	r25, r19

	movw ST30, T0
     856:	6a 01       	movw	r12, r20
	movw ST32, T3
     858:	7c 01       	movw	r14, r24
	movw ST01, M1
     85a:	18 01       	movw	r2, r16
	movw ST12, T2
     85c:	3b 01       	movw	r6, r22
	.irp row, 0, 1, 2, 3
		.irp col, 0, 1, 2, 3
			ld r16, X+
			eor ST\row\col, r16
		.endr
	.endr
     85e:	0d 91       	ld	r16, X+
     860:	10 26       	eor	r1, r16
     862:	0d 91       	ld	r16, X+
     864:	20 26       	eor	r2, r16
     866:	0d 91       	ld	r16, X+
     868:	30 26       	eor	r3, r16
     86a:	0d 91       	ld	r16, X+
     86c:	00 26       	eor	r0, r16
     86e:	0d 91       	ld	r16, X+
     870:	40 26       	eor	r4, r16
     872:	0d 91       	ld	r16, X+
     874:	50 26       	eor	r5, r16
     876:	0d 91       	ld	r16, X+
     878:	60 26       	eor	r6, r16
     87a:	0d 91       	ld	r16, X+
     87c:	b0 26       	eor	r11, r16
     87e:	0d 91       	ld	r16, X+
     880:	80 26       	eor	r8, r16
     882:	0d 91       	ld	r16, X+
     884:	90 26       	eor	r9, r16
     886:	0d 91       	ld	r16, X+
     888:	a0 26       	eor	r10, r16
     88a:	0d 91       	ld	r16, X+
     88c:	70 26       	eor	r7, r16
     88e:	0d 91       	ld	r16, X+
     890:	c0 26       	eor	r12, r16
     892:	0d 91       	ld	r16, X+
     894:	d0 26       	eor	r13, r16
     896:	0d 91       	ld	r16, X+
     898:	e0 26       	eor	r14, r16
     89a:	0d 91       	ld	r16, X+
     89c:	f0 26       	eor	r15, r16
	
	//6 Round------------------------------------------------------------------------------------------
	
	/* Shift Row and Subbyte , Mixcolumns */
	//! 1번째 열 시작
	mov r30, ST00 
     89e:	e1 2d       	mov	r30, r1
	ld  M1, Z 
     8a0:	00 81       	ld	r16, Z
	mov M2, M1
     8a2:	10 2f       	mov	r17, r16
	mov M3, M2 
     8a4:	71 2f       	mov	r23, r17
	mov r28, ST00
     8a6:	c1 2d       	mov	r28, r1
	ld  M0, Y
     8a8:	38 81       	ld	r19, Y
	eor M3, M0 ; 2, 1, 1, 3 완료
     8aa:	73 27       	eor	r23, r19

	mov r30, ST11
     8ac:	e5 2d       	mov	r30, r5
	ld  T0, Z
     8ae:	40 81       	ld	r20, Z
	eor M0, T0
     8b0:	34 27       	eor	r19, r20
	eor M2, T0
     8b2:	14 27       	eor	r17, r20
	eor M3, T0 
     8b4:	74 27       	eor	r23, r20
	mov r28, ST11
     8b6:	c5 2d       	mov	r28, r5
	ld  T0, Y
     8b8:	48 81       	ld	r20, Y
	eor M0, T0
     8ba:	34 27       	eor	r19, r20
	eor M1, T0 ;3, 2, 2, 1 완료
     8bc:	04 27       	eor	r16, r20

	mov r30, ST22
     8be:	ea 2d       	mov	r30, r10
	ld  T0, Z
     8c0:	40 81       	ld	r20, Z
	eor M0, T0
     8c2:	34 27       	eor	r19, r20
	eor M1, T0
     8c4:	04 27       	eor	r16, r20
	eor M3, T0
     8c6:	74 27       	eor	r23, r20
	mov r28, ST22
     8c8:	ca 2d       	mov	r28, r10
	ld  T0, Y
     8ca:	48 81       	ld	r20, Y
	eor M1, T0
     8cc:	04 27       	eor	r16, r20
	eor M2, T0 ;1, 3, 2, 1 완료
     8ce:	14 27       	eor	r17, r20

	mov r30, ST33
     8d0:	ef 2d       	mov	r30, r15
	ld  T0, Z
     8d2:	40 81       	ld	r20, Z
	eor M0, T0
     8d4:	34 27       	eor	r19, r20
	eor M1, T0
     8d6:	04 27       	eor	r16, r20
	eor M2, T0 
     8d8:	14 27       	eor	r17, r20
	mov r28, ST33
     8da:	cf 2d       	mov	r28, r15
	ld  T0, Y
     8dc:	48 81       	ld	r20, Y
	eor M2, T0
     8de:	14 27       	eor	r17, r20
	eor M3, T0 ;1, 1, 3, 2 완료
     8e0:	74 27       	eor	r23, r20

	mov ST00, M0
     8e2:	13 2e       	mov	r1, r19
	//! 1번째 열 완료

	//! 2번째 열 시작
	mov r30, ST10 
     8e4:	e4 2d       	mov	r30, r4
	ld  T1, Z 
     8e6:	50 81       	ld	r21, Z
	mov T2, T1
     8e8:	65 2f       	mov	r22, r21
	mov T3, T2 
     8ea:	86 2f       	mov	r24, r22
	mov r28, ST10
     8ec:	c4 2d       	mov	r28, r4
	ld  T0, Y
     8ee:	48 81       	ld	r20, Y
	eor T3, T0 ; 2, 1, 1, 3 완료
     8f0:	84 27       	eor	r24, r20

	mov r30, ST21
     8f2:	e9 2d       	mov	r30, r9
	ld  M0, Z
     8f4:	30 81       	ld	r19, Z
	eor T0, M0
     8f6:	43 27       	eor	r20, r19
	eor T2, M0
     8f8:	63 27       	eor	r22, r19
	eor T3, M0 
     8fa:	83 27       	eor	r24, r19
	mov r28, ST21
     8fc:	c9 2d       	mov	r28, r9
	ld  M0, Y
     8fe:	38 81       	ld	r19, Y
	eor T0, M0
     900:	43 27       	eor	r20, r19
	eor T1, M0 ;3, 2, 2, 1 완료
     902:	53 27       	eor	r21, r19

	mov r30, ST32
     904:	ee 2d       	mov	r30, r14
	ld  M0, Z
     906:	30 81       	ld	r19, Z
	eor T0, M0
     908:	43 27       	eor	r20, r19
	eor T1, M0
     90a:	53 27       	eor	r21, r19
	eor T3, M0 
     90c:	83 27       	eor	r24, r19
	mov r28, ST32
     90e:	ce 2d       	mov	r28, r14
	ld  M0, Y
     910:	38 81       	ld	r19, Y
	eor T1, M0
     912:	53 27       	eor	r21, r19
	eor T2, M0 ;1, 3, 2, 1 완료
     914:	63 27       	eor	r22, r19

	mov r30, ST03
     916:	e0 2d       	mov	r30, r0
	ld  M0, Z
     918:	30 81       	ld	r19, Z
	eor T0, M0
     91a:	43 27       	eor	r20, r19
	eor T1, M0
     91c:	53 27       	eor	r21, r19
	eor T2, M0 
     91e:	63 27       	eor	r22, r19
	mov r28, ST03
     920:	c0 2d       	mov	r28, r0
	ld  M0, Y
     922:	38 81       	ld	r19, Y
	eor T2, M0
     924:	63 27       	eor	r22, r19
	eor T3, M0 ;1, 1, 3, 2 완료
     926:	83 27       	eor	r24, r19

	movw ST10, T0
     928:	2a 01       	movw	r4, r20
	;mov ST11, T1
	mov ST03, M3
     92a:	07 2e       	mov	r0, r23
	//! 2번째 열 완료

	//! 3번째 열 시작
	mov r30, ST20 
     92c:	e8 2d       	mov	r30, r8
	ld  T0, Z 
     92e:	40 81       	ld	r20, Z
	mov T1, T0
     930:	54 2f       	mov	r21, r20
	mov M3, T1 
     932:	75 2f       	mov	r23, r21
	mov r28, ST20
     934:	c8 2d       	mov	r28, r8
	ld  M0, Y
     936:	38 81       	ld	r19, Y
	eor M3, M0 ; 2, 1, 1, 3 완료
     938:	73 27       	eor	r23, r19

	mov r30, ST31
     93a:	ed 2d       	mov	r30, r13
	ld  r25, Z
     93c:	90 81       	ld	r25, Z
	eor M0, r25
     93e:	39 27       	eor	r19, r25
	eor T1, r25
     940:	59 27       	eor	r21, r25
	eor M3, r25
     942:	79 27       	eor	r23, r25
	mov r28, ST31
     944:	cd 2d       	mov	r28, r13
	ld  r25, Y
     946:	98 81       	ld	r25, Y
	eor M0, r25
     948:	39 27       	eor	r19, r25
	eor T0, r25 ;3, 2, 2, 1 완료
     94a:	49 27       	eor	r20, r25

	mov r30, ST02
     94c:	e3 2d       	mov	r30, r3
	ld  r25, Z
     94e:	90 81       	ld	r25, Z
	eor M0, r25
     950:	39 27       	eor	r19, r25
	eor T0, r25
     952:	49 27       	eor	r20, r25
	eor M3, r25
     954:	79 27       	eor	r23, r25
	mov r28, ST02
     956:	c3 2d       	mov	r28, r3
	ld  r25, Y
     958:	98 81       	ld	r25, Y
	eor T0, r25
     95a:	49 27       	eor	r20, r25
	eor T1, r25;1, 3, 2, 1 완료
     95c:	59 27       	eor	r21, r25

	mov r30, ST13
     95e:	eb 2d       	mov	r30, r11
	ld  r25, Z
     960:	90 81       	ld	r25, Z
	eor M0, r25
     962:	39 27       	eor	r19, r25
	eor T0, r25
     964:	49 27       	eor	r20, r25
	eor T1, r25 
     966:	59 27       	eor	r21, r25
	mov r28, ST13
     968:	cb 2d       	mov	r28, r11
	ld  r25, Y
     96a:	98 81       	ld	r25, Y
	eor T1, r25
     96c:	59 27       	eor	r21, r25
	eor M3, r25 ;1, 1, 3, 2 완료
     96e:	79 27       	eor	r23, r25

	mov ST20, M0
     970:	83 2e       	mov	r8, r19
	mov ST21, T0
     972:	94 2e       	mov	r9, r20
	mov ST22, T1
     974:	a5 2e       	mov	r10, r21
	mov ST13, T3
     976:	b8 2e       	mov	r11, r24
	//! 3번째 열 완료



	//! 4번째 열 시작
	mov r30, ST30 
     978:	ec 2d       	mov	r30, r12
	ld  T1, Z 
     97a:	50 81       	ld	r21, Z
	mov T3, T1
     97c:	85 2f       	mov	r24, r21
	mov r25, T3 
     97e:	98 2f       	mov	r25, r24
	mov r28, ST30
     980:	cc 2d       	mov	r28, r12
	ld  T0, Y
     982:	48 81       	ld	r20, Y
	eor r25, T0 ; 2, 1, 1, 3 완료
     984:	94 27       	eor	r25, r20

	mov r30, ST01
     986:	e2 2d       	mov	r30, r2
	ld  M0, Z
     988:	30 81       	ld	r19, Z
	eor T0, M0
     98a:	43 27       	eor	r20, r19
	eor T3, M0
     98c:	83 27       	eor	r24, r19
	eor r25, M0 
     98e:	93 27       	eor	r25, r19
	mov r28, ST01
     990:	c2 2d       	mov	r28, r2
	ld  M0, Y
     992:	38 81       	ld	r19, Y
	eor T0, M0
     994:	43 27       	eor	r20, r19
	eor T1, M0 ;3, 2, 2, 1 완료
     996:	53 27       	eor	r21, r19

	mov r30, ST12
     998:	e6 2d       	mov	r30, r6
	ld  M0, Z
     99a:	30 81       	ld	r19, Z
	eor T0, M0
     99c:	43 27       	eor	r20, r19
	eor T1, M0
     99e:	53 27       	eor	r21, r19
	eor r25, M0 
     9a0:	93 27       	eor	r25, r19
	mov r28, ST12
     9a2:	c6 2d       	mov	r28, r6
	ld  M0, Y
     9a4:	38 81       	ld	r19, Y
	eor T1, M0
     9a6:	53 27       	eor	r21, r19
	eor T3, M0 ;1, 3, 2, 1 완료
     9a8:	83 27       	eor	r24, r19

	mov r30, ST23
     9aa:	e7 2d       	mov	r30, r7
	ld  M0, Z
     9ac:	30 81       	ld	r19, Z
	eor T0, M0
     9ae:	43 27       	eor	r20, r19
	eor T1, M0
     9b0:	53 27       	eor	r21, r19
	eor T3, M0 
     9b2:	83 27       	eor	r24, r19
	mov r28, ST23
     9b4:	c7 2d       	mov	r28, r7
	ld  M0, Y
     9b6:	38 81       	ld	r19, Y
	eor T3, M0
     9b8:	83 27       	eor	r24, r19
	eor r25, M0 ;1, 1, 3, 2 완료
     9ba:	93 27       	eor	r25, r19

	movw ST30, T0
     9bc:	6a 01       	movw	r12, r20
	movw ST32, T3
     9be:	7c 01       	movw	r14, r24
	movw ST01, M1
     9c0:	18 01       	movw	r2, r16
	movw ST12, T2
     9c2:	3b 01       	movw	r6, r22
	.irp row, 0, 1, 2, 3
		.irp col, 0, 1, 2, 3
			ld r16, X+
			eor ST\row\col, r16
		.endr
	.endr
     9c4:	0d 91       	ld	r16, X+
     9c6:	10 26       	eor	r1, r16
     9c8:	0d 91       	ld	r16, X+
     9ca:	20 26       	eor	r2, r16
     9cc:	0d 91       	ld	r16, X+
     9ce:	30 26       	eor	r3, r16
     9d0:	0d 91       	ld	r16, X+
     9d2:	00 26       	eor	r0, r16
     9d4:	0d 91       	ld	r16, X+
     9d6:	40 26       	eor	r4, r16
     9d8:	0d 91       	ld	r16, X+
     9da:	50 26       	eor	r5, r16
     9dc:	0d 91       	ld	r16, X+
     9de:	60 26       	eor	r6, r16
     9e0:	0d 91       	ld	r16, X+
     9e2:	b0 26       	eor	r11, r16
     9e4:	0d 91       	ld	r16, X+
     9e6:	80 26       	eor	r8, r16
     9e8:	0d 91       	ld	r16, X+
     9ea:	90 26       	eor	r9, r16
     9ec:	0d 91       	ld	r16, X+
     9ee:	a0 26       	eor	r10, r16
     9f0:	0d 91       	ld	r16, X+
     9f2:	70 26       	eor	r7, r16
     9f4:	0d 91       	ld	r16, X+
     9f6:	c0 26       	eor	r12, r16
     9f8:	0d 91       	ld	r16, X+
     9fa:	d0 26       	eor	r13, r16
     9fc:	0d 91       	ld	r16, X+
     9fe:	e0 26       	eor	r14, r16
     a00:	0d 91       	ld	r16, X+
     a02:	f0 26       	eor	r15, r16
	
	//7 Round------------------------------------------------------------------------------------------
	
	/* Shift Row and Subbyte , Mixcolumns */
	//! 1번째 열 시작
	mov r30, ST00 
     a04:	e1 2d       	mov	r30, r1
	ld  M1, Z 
     a06:	00 81       	ld	r16, Z
	mov M2, M1
     a08:	10 2f       	mov	r17, r16
	mov M3, M2 
     a0a:	71 2f       	mov	r23, r17
	mov r28, ST00
     a0c:	c1 2d       	mov	r28, r1
	ld  M0, Y
     a0e:	38 81       	ld	r19, Y
	eor M3, M0 ; 2, 1, 1, 3 완료
     a10:	73 27       	eor	r23, r19

	mov r30, ST11
     a12:	e5 2d       	mov	r30, r5
	ld  T0, Z
     a14:	40 81       	ld	r20, Z
	eor M0, T0
     a16:	34 27       	eor	r19, r20
	eor M2, T0
     a18:	14 27       	eor	r17, r20
	eor M3, T0 
     a1a:	74 27       	eor	r23, r20
	mov r28, ST11
     a1c:	c5 2d       	mov	r28, r5
	ld  T0, Y
     a1e:	48 81       	ld	r20, Y
	eor M0, T0
     a20:	34 27       	eor	r19, r20
	eor M1, T0 ;3, 2, 2, 1 완료
     a22:	04 27       	eor	r16, r20

	mov r30, ST22
     a24:	ea 2d       	mov	r30, r10
	ld  T0, Z
     a26:	40 81       	ld	r20, Z
	eor M0, T0
     a28:	34 27       	eor	r19, r20
	eor M1, T0
     a2a:	04 27       	eor	r16, r20
	eor M3, T0
     a2c:	74 27       	eor	r23, r20
	mov r28, ST22
     a2e:	ca 2d       	mov	r28, r10
	ld  T0, Y
     a30:	48 81       	ld	r20, Y
	eor M1, T0
     a32:	04 27       	eor	r16, r20
	eor M2, T0 ;1, 3, 2, 1 완료
     a34:	14 27       	eor	r17, r20

	mov r30, ST33
     a36:	ef 2d       	mov	r30, r15
	ld  T0, Z
     a38:	40 81       	ld	r20, Z
	eor M0, T0
     a3a:	34 27       	eor	r19, r20
	eor M1, T0
     a3c:	04 27       	eor	r16, r20
	eor M2, T0 
     a3e:	14 27       	eor	r17, r20
	mov r28, ST33
     a40:	cf 2d       	mov	r28, r15
	ld  T0, Y
     a42:	48 81       	ld	r20, Y
	eor M2, T0
     a44:	14 27       	eor	r17, r20
	eor M3, T0 ;1, 1, 3, 2 완료
     a46:	74 27       	eor	r23, r20

	mov ST00, M0
     a48:	13 2e       	mov	r1, r19
	//! 1번째 열 완료

	//! 2번째 열 시작
	mov r30, ST10 
     a4a:	e4 2d       	mov	r30, r4
	ld  T1, Z 
     a4c:	50 81       	ld	r21, Z
	mov T2, T1
     a4e:	65 2f       	mov	r22, r21
	mov T3, T2 
     a50:	86 2f       	mov	r24, r22
	mov r28, ST10
     a52:	c4 2d       	mov	r28, r4
	ld  T0, Y
     a54:	48 81       	ld	r20, Y
	eor T3, T0 ; 2, 1, 1, 3 완료
     a56:	84 27       	eor	r24, r20

	mov r30, ST21
     a58:	e9 2d       	mov	r30, r9
	ld  M0, Z
     a5a:	30 81       	ld	r19, Z
	eor T0, M0
     a5c:	43 27       	eor	r20, r19
	eor T2, M0
     a5e:	63 27       	eor	r22, r19
	eor T3, M0 
     a60:	83 27       	eor	r24, r19
	mov r28, ST21
     a62:	c9 2d       	mov	r28, r9
	ld  M0, Y
     a64:	38 81       	ld	r19, Y
	eor T0, M0
     a66:	43 27       	eor	r20, r19
	eor T1, M0 ;3, 2, 2, 1 완료
     a68:	53 27       	eor	r21, r19

	mov r30, ST32
     a6a:	ee 2d       	mov	r30, r14
	ld  M0, Z
     a6c:	30 81       	ld	r19, Z
	eor T0, M0
     a6e:	43 27       	eor	r20, r19
	eor T1, M0
     a70:	53 27       	eor	r21, r19
	eor T3, M0 
     a72:	83 27       	eor	r24, r19
	mov r28, ST32
     a74:	ce 2d       	mov	r28, r14
	ld  M0, Y
     a76:	38 81       	ld	r19, Y
	eor T1, M0
     a78:	53 27       	eor	r21, r19
	eor T2, M0 ;1, 3, 2, 1 완료
     a7a:	63 27       	eor	r22, r19

	mov r30, ST03
     a7c:	e0 2d       	mov	r30, r0
	ld  M0, Z
     a7e:	30 81       	ld	r19, Z
	eor T0, M0
     a80:	43 27       	eor	r20, r19
	eor T1, M0
     a82:	53 27       	eor	r21, r19
	eor T2, M0 
     a84:	63 27       	eor	r22, r19
	mov r28, ST03
     a86:	c0 2d       	mov	r28, r0
	ld  M0, Y
     a88:	38 81       	ld	r19, Y
	eor T2, M0
     a8a:	63 27       	eor	r22, r19
	eor T3, M0 ;1, 1, 3, 2 완료
     a8c:	83 27       	eor	r24, r19

	movw ST10, T0
     a8e:	2a 01       	movw	r4, r20
	;mov ST11, T1
	mov ST03, M3
     a90:	07 2e       	mov	r0, r23
	//! 2번째 열 완료

	//! 3번째 열 시작
	mov r30, ST20 
     a92:	e8 2d       	mov	r30, r8
	ld  T0, Z 
     a94:	40 81       	ld	r20, Z
	mov T1, T0
     a96:	54 2f       	mov	r21, r20
	mov M3, T1 
     a98:	75 2f       	mov	r23, r21
	mov r28, ST20
     a9a:	c8 2d       	mov	r28, r8
	ld  M0, Y
     a9c:	38 81       	ld	r19, Y
	eor M3, M0 ; 2, 1, 1, 3 완료
     a9e:	73 27       	eor	r23, r19

	mov r30, ST31
     aa0:	ed 2d       	mov	r30, r13
	ld  r25, Z
     aa2:	90 81       	ld	r25, Z
	eor M0, r25
     aa4:	39 27       	eor	r19, r25
	eor T1, r25
     aa6:	59 27       	eor	r21, r25
	eor M3, r25
     aa8:	79 27       	eor	r23, r25
	mov r28, ST31
     aaa:	cd 2d       	mov	r28, r13
	ld  r25, Y
     aac:	98 81       	ld	r25, Y
	eor M0, r25
     aae:	39 27       	eor	r19, r25
	eor T0, r25 ;3, 2, 2, 1 완료
     ab0:	49 27       	eor	r20, r25

	mov r30, ST02
     ab2:	e3 2d       	mov	r30, r3
	ld  r25, Z
     ab4:	90 81       	ld	r25, Z
	eor M0, r25
     ab6:	39 27       	eor	r19, r25
	eor T0, r25
     ab8:	49 27       	eor	r20, r25
	eor M3, r25
     aba:	79 27       	eor	r23, r25
	mov r28, ST02
     abc:	c3 2d       	mov	r28, r3
	ld  r25, Y
     abe:	98 81       	ld	r25, Y
	eor T0, r25
     ac0:	49 27       	eor	r20, r25
	eor T1, r25;1, 3, 2, 1 완료
     ac2:	59 27       	eor	r21, r25

	mov r30, ST13
     ac4:	eb 2d       	mov	r30, r11
	ld  r25, Z
     ac6:	90 81       	ld	r25, Z
	eor M0, r25
     ac8:	39 27       	eor	r19, r25
	eor T0, r25
     aca:	49 27       	eor	r20, r25
	eor T1, r25 
     acc:	59 27       	eor	r21, r25
	mov r28, ST13
     ace:	cb 2d       	mov	r28, r11
	ld  r25, Y
     ad0:	98 81       	ld	r25, Y
	eor T1, r25
     ad2:	59 27       	eor	r21, r25
	eor M3, r25 ;1, 1, 3, 2 완료
     ad4:	79 27       	eor	r23, r25

	mov ST20, M0
     ad6:	83 2e       	mov	r8, r19
	mov ST21, T0
     ad8:	94 2e       	mov	r9, r20
	mov ST22, T1
     ada:	a5 2e       	mov	r10, r21
	mov ST13, T3
     adc:	b8 2e       	mov	r11, r24
	//! 3번째 열 완료



	//! 4번째 열 시작
	mov r30, ST30 
     ade:	ec 2d       	mov	r30, r12
	ld  T1, Z 
     ae0:	50 81       	ld	r21, Z
	mov T3, T1
     ae2:	85 2f       	mov	r24, r21
	mov r25, T3 
     ae4:	98 2f       	mov	r25, r24
	mov r28, ST30
     ae6:	cc 2d       	mov	r28, r12
	ld  T0, Y
     ae8:	48 81       	ld	r20, Y
	eor r25, T0 ; 2, 1, 1, 3 완료
     aea:	94 27       	eor	r25, r20

	mov r30, ST01
     aec:	e2 2d       	mov	r30, r2
	ld  M0, Z
     aee:	30 81       	ld	r19, Z
	eor T0, M0
     af0:	43 27       	eor	r20, r19
	eor T3, M0
     af2:	83 27       	eor	r24, r19
	eor r25, M0 
     af4:	93 27       	eor	r25, r19
	mov r28, ST01
     af6:	c2 2d       	mov	r28, r2
	ld  M0, Y
     af8:	38 81       	ld	r19, Y
	eor T0, M0
     afa:	43 27       	eor	r20, r19
	eor T1, M0 ;3, 2, 2, 1 완료
     afc:	53 27       	eor	r21, r19

	mov r30, ST12
     afe:	e6 2d       	mov	r30, r6
	ld  M0, Z
     b00:	30 81       	ld	r19, Z
	eor T0, M0
     b02:	43 27       	eor	r20, r19
	eor T1, M0
     b04:	53 27       	eor	r21, r19
	eor r25, M0 
     b06:	93 27       	eor	r25, r19
	mov r28, ST12
     b08:	c6 2d       	mov	r28, r6
	ld  M0, Y
     b0a:	38 81       	ld	r19, Y
	eor T1, M0
     b0c:	53 27       	eor	r21, r19
	eor T3, M0 ;1, 3, 2, 1 완료
     b0e:	83 27       	eor	r24, r19

	mov r30, ST23
     b10:	e7 2d       	mov	r30, r7
	ld  M0, Z
     b12:	30 81       	ld	r19, Z
	eor T0, M0
     b14:	43 27       	eor	r20, r19
	eor T1, M0
     b16:	53 27       	eor	r21, r19
	eor T3, M0 
     b18:	83 27       	eor	r24, r19
	mov r28, ST23
     b1a:	c7 2d       	mov	r28, r7
	ld  M0, Y
     b1c:	38 81       	ld	r19, Y
	eor T3, M0
     b1e:	83 27       	eor	r24, r19
	eor r25, M0 ;1, 1, 3, 2 완료
     b20:	93 27       	eor	r25, r19

	movw ST30, T0
     b22:	6a 01       	movw	r12, r20
	movw ST32, T3
     b24:	7c 01       	movw	r14, r24
	movw ST01, M1
     b26:	18 01       	movw	r2, r16
	movw ST12, T2
     b28:	3b 01       	movw	r6, r22
	.irp row, 0, 1, 2, 3
		.irp col, 0, 1, 2, 3
			ld r16, X+
			eor ST\row\col, r16
		.endr
	.endr
     b2a:	0d 91       	ld	r16, X+
     b2c:	10 26       	eor	r1, r16
     b2e:	0d 91       	ld	r16, X+
     b30:	20 26       	eor	r2, r16
     b32:	0d 91       	ld	r16, X+
     b34:	30 26       	eor	r3, r16
     b36:	0d 91       	ld	r16, X+
     b38:	00 26       	eor	r0, r16
     b3a:	0d 91       	ld	r16, X+
     b3c:	40 26       	eor	r4, r16
     b3e:	0d 91       	ld	r16, X+
     b40:	50 26       	eor	r5, r16
     b42:	0d 91       	ld	r16, X+
     b44:	60 26       	eor	r6, r16
     b46:	0d 91       	ld	r16, X+
     b48:	b0 26       	eor	r11, r16
     b4a:	0d 91       	ld	r16, X+
     b4c:	80 26       	eor	r8, r16
     b4e:	0d 91       	ld	r16, X+
     b50:	90 26       	eor	r9, r16
     b52:	0d 91       	ld	r16, X+
     b54:	a0 26       	eor	r10, r16
     b56:	0d 91       	ld	r16, X+
     b58:	70 26       	eor	r7, r16
     b5a:	0d 91       	ld	r16, X+
     b5c:	c0 26       	eor	r12, r16
     b5e:	0d 91       	ld	r16, X+
     b60:	d0 26       	eor	r13, r16
     b62:	0d 91       	ld	r16, X+
     b64:	e0 26       	eor	r14, r16
     b66:	0d 91       	ld	r16, X+
     b68:	f0 26       	eor	r15, r16
	
	//8 Round------------------------------------------------------------------------------------------
	
	/* Shift Row and Subbyte , Mixcolumns */
	//! 1번째 열 시작
	mov r30, ST00 
     b6a:	e1 2d       	mov	r30, r1
	ld  M1, Z 
     b6c:	00 81       	ld	r16, Z
	mov M2, M1
     b6e:	10 2f       	mov	r17, r16
	mov M3, M2 
     b70:	71 2f       	mov	r23, r17
	mov r28, ST00
     b72:	c1 2d       	mov	r28, r1
	ld  M0, Y
     b74:	38 81       	ld	r19, Y
	eor M3, M0 ; 2, 1, 1, 3 완료
     b76:	73 27       	eor	r23, r19

	mov r30, ST11
     b78:	e5 2d       	mov	r30, r5
	ld  T0, Z
     b7a:	40 81       	ld	r20, Z
	eor M0, T0
     b7c:	34 27       	eor	r19, r20
	eor M2, T0
     b7e:	14 27       	eor	r17, r20
	eor M3, T0 
     b80:	74 27       	eor	r23, r20
	mov r28, ST11
     b82:	c5 2d       	mov	r28, r5
	ld  T0, Y
     b84:	48 81       	ld	r20, Y
	eor M0, T0
     b86:	34 27       	eor	r19, r20
	eor M1, T0 ;3, 2, 2, 1 완료
     b88:	04 27       	eor	r16, r20

	mov r30, ST22
     b8a:	ea 2d       	mov	r30, r10
	ld  T0, Z
     b8c:	40 81       	ld	r20, Z
	eor M0, T0
     b8e:	34 27       	eor	r19, r20
	eor M1, T0
     b90:	04 27       	eor	r16, r20
	eor M3, T0
     b92:	74 27       	eor	r23, r20
	mov r28, ST22
     b94:	ca 2d       	mov	r28, r10
	ld  T0, Y
     b96:	48 81       	ld	r20, Y
	eor M1, T0
     b98:	04 27       	eor	r16, r20
	eor M2, T0 ;1, 3, 2, 1 완료
     b9a:	14 27       	eor	r17, r20

	mov r30, ST33
     b9c:	ef 2d       	mov	r30, r15
	ld  T0, Z
     b9e:	40 81       	ld	r20, Z
	eor M0, T0
     ba0:	34 27       	eor	r19, r20
	eor M1, T0
     ba2:	04 27       	eor	r16, r20
	eor M2, T0 
     ba4:	14 27       	eor	r17, r20
	mov r28, ST33
     ba6:	cf 2d       	mov	r28, r15
	ld  T0, Y
     ba8:	48 81       	ld	r20, Y
	eor M2, T0
     baa:	14 27       	eor	r17, r20
	eor M3, T0 ;1, 1, 3, 2 완료
     bac:	74 27       	eor	r23, r20

	mov ST00, M0
     bae:	13 2e       	mov	r1, r19
	//! 1번째 열 완료

	//! 2번째 열 시작
	mov r30, ST10 
     bb0:	e4 2d       	mov	r30, r4
	ld  T1, Z 
     bb2:	50 81       	ld	r21, Z
	mov T2, T1
     bb4:	65 2f       	mov	r22, r21
	mov T3, T2 
     bb6:	86 2f       	mov	r24, r22
	mov r28, ST10
     bb8:	c4 2d       	mov	r28, r4
	ld  T0, Y
     bba:	48 81       	ld	r20, Y
	eor T3, T0 ; 2, 1, 1, 3 완료
     bbc:	84 27       	eor	r24, r20

	mov r30, ST21
     bbe:	e9 2d       	mov	r30, r9
	ld  M0, Z
     bc0:	30 81       	ld	r19, Z
	eor T0, M0
     bc2:	43 27       	eor	r20, r19
	eor T2, M0
     bc4:	63 27       	eor	r22, r19
	eor T3, M0 
     bc6:	83 27       	eor	r24, r19
	mov r28, ST21
     bc8:	c9 2d       	mov	r28, r9
	ld  M0, Y
     bca:	38 81       	ld	r19, Y
	eor T0, M0
     bcc:	43 27       	eor	r20, r19
	eor T1, M0 ;3, 2, 2, 1 완료
     bce:	53 27       	eor	r21, r19

	mov r30, ST32
     bd0:	ee 2d       	mov	r30, r14
	ld  M0, Z
     bd2:	30 81       	ld	r19, Z
	eor T0, M0
     bd4:	43 27       	eor	r20, r19
	eor T1, M0
     bd6:	53 27       	eor	r21, r19
	eor T3, M0 
     bd8:	83 27       	eor	r24, r19
	mov r28, ST32
     bda:	ce 2d       	mov	r28, r14
	ld  M0, Y
     bdc:	38 81       	ld	r19, Y
	eor T1, M0
     bde:	53 27       	eor	r21, r19
	eor T2, M0 ;1, 3, 2, 1 완료
     be0:	63 27       	eor	r22, r19

	mov r30, ST03
     be2:	e0 2d       	mov	r30, r0
	ld  M0, Z
     be4:	30 81       	ld	r19, Z
	eor T0, M0
     be6:	43 27       	eor	r20, r19
	eor T1, M0
     be8:	53 27       	eor	r21, r19
	eor T2, M0 
     bea:	63 27       	eor	r22, r19
	mov r28, ST03
     bec:	c0 2d       	mov	r28, r0
	ld  M0, Y
     bee:	38 81       	ld	r19, Y
	eor T2, M0
     bf0:	63 27       	eor	r22, r19
	eor T3, M0 ;1, 1, 3, 2 완료
     bf2:	83 27       	eor	r24, r19

	movw ST10, T0
     bf4:	2a 01       	movw	r4, r20
	;mov ST11, T1
	mov ST03, M3
     bf6:	07 2e       	mov	r0, r23
	//! 2번째 열 완료

	//! 3번째 열 시작
	mov r30, ST20 
     bf8:	e8 2d       	mov	r30, r8
	ld  T0, Z 
     bfa:	40 81       	ld	r20, Z
	mov T1, T0
     bfc:	54 2f       	mov	r21, r20
	mov M3, T1 
     bfe:	75 2f       	mov	r23, r21
	mov r28, ST20
     c00:	c8 2d       	mov	r28, r8
	ld  M0, Y
     c02:	38 81       	ld	r19, Y
	eor M3, M0 ; 2, 1, 1, 3 완료
     c04:	73 27       	eor	r23, r19

	mov r30, ST31
     c06:	ed 2d       	mov	r30, r13
	ld  r25, Z
     c08:	90 81       	ld	r25, Z
	eor M0, r25
     c0a:	39 27       	eor	r19, r25
	eor T1, r25
     c0c:	59 27       	eor	r21, r25
	eor M3, r25
     c0e:	79 27       	eor	r23, r25
	mov r28, ST31
     c10:	cd 2d       	mov	r28, r13
	ld  r25, Y
     c12:	98 81       	ld	r25, Y
	eor M0, r25
     c14:	39 27       	eor	r19, r25
	eor T0, r25 ;3, 2, 2, 1 완료
     c16:	49 27       	eor	r20, r25

	mov r30, ST02
     c18:	e3 2d       	mov	r30, r3
	ld  r25, Z
     c1a:	90 81       	ld	r25, Z
	eor M0, r25
     c1c:	39 27       	eor	r19, r25
	eor T0, r25
     c1e:	49 27       	eor	r20, r25
	eor M3, r25
     c20:	79 27       	eor	r23, r25
	mov r28, ST02
     c22:	c3 2d       	mov	r28, r3
	ld  r25, Y
     c24:	98 81       	ld	r25, Y
	eor T0, r25
     c26:	49 27       	eor	r20, r25
	eor T1, r25;1, 3, 2, 1 완료
     c28:	59 27       	eor	r21, r25

	mov r30, ST13
     c2a:	eb 2d       	mov	r30, r11
	ld  r25, Z
     c2c:	90 81       	ld	r25, Z
	eor M0, r25
     c2e:	39 27       	eor	r19, r25
	eor T0, r25
     c30:	49 27       	eor	r20, r25
	eor T1, r25 
     c32:	59 27       	eor	r21, r25
	mov r28, ST13
     c34:	cb 2d       	mov	r28, r11
	ld  r25, Y
     c36:	98 81       	ld	r25, Y
	eor T1, r25
     c38:	59 27       	eor	r21, r25
	eor M3, r25 ;1, 1, 3, 2 완료
     c3a:	79 27       	eor	r23, r25

	mov ST20, M0
     c3c:	83 2e       	mov	r8, r19
	mov ST21, T0
     c3e:	94 2e       	mov	r9, r20
	mov ST22, T1
     c40:	a5 2e       	mov	r10, r21
	mov ST13, T3
     c42:	b8 2e       	mov	r11, r24
	//! 3번째 열 완료



	//! 4번째 열 시작
	mov r30, ST30 
     c44:	ec 2d       	mov	r30, r12
	ld  T1, Z 
     c46:	50 81       	ld	r21, Z
	mov T3, T1
     c48:	85 2f       	mov	r24, r21
	mov r25, T3 
     c4a:	98 2f       	mov	r25, r24
	mov r28, ST30
     c4c:	cc 2d       	mov	r28, r12
	ld  T0, Y
     c4e:	48 81       	ld	r20, Y
	eor r25, T0 ; 2, 1, 1, 3 완료
     c50:	94 27       	eor	r25, r20

	mov r30, ST01
     c52:	e2 2d       	mov	r30, r2
	ld  M0, Z
     c54:	30 81       	ld	r19, Z
	eor T0, M0
     c56:	43 27       	eor	r20, r19
	eor T3, M0
     c58:	83 27       	eor	r24, r19
	eor r25, M0 
     c5a:	93 27       	eor	r25, r19
	mov r28, ST01
     c5c:	c2 2d       	mov	r28, r2
	ld  M0, Y
     c5e:	38 81       	ld	r19, Y
	eor T0, M0
     c60:	43 27       	eor	r20, r19
	eor T1, M0 ;3, 2, 2, 1 완료
     c62:	53 27       	eor	r21, r19

	mov r30, ST12
     c64:	e6 2d       	mov	r30, r6
	ld  M0, Z
     c66:	30 81       	ld	r19, Z
	eor T0, M0
     c68:	43 27       	eor	r20, r19
	eor T1, M0
     c6a:	53 27       	eor	r21, r19
	eor r25, M0 
     c6c:	93 27       	eor	r25, r19
	mov r28, ST12
     c6e:	c6 2d       	mov	r28, r6
	ld  M0, Y
     c70:	38 81       	ld	r19, Y
	eor T1, M0
     c72:	53 27       	eor	r21, r19
	eor T3, M0 ;1, 3, 2, 1 완료
     c74:	83 27       	eor	r24, r19

	mov r30, ST23
     c76:	e7 2d       	mov	r30, r7
	ld  M0, Z
     c78:	30 81       	ld	r19, Z
	eor T0, M0
     c7a:	43 27       	eor	r20, r19
	eor T1, M0
     c7c:	53 27       	eor	r21, r19
	eor T3, M0 
     c7e:	83 27       	eor	r24, r19
	mov r28, ST23
     c80:	c7 2d       	mov	r28, r7
	ld  M0, Y
     c82:	38 81       	ld	r19, Y
	eor T3, M0
     c84:	83 27       	eor	r24, r19
	eor r25, M0 ;1, 1, 3, 2 완료
     c86:	93 27       	eor	r25, r19
	movw ST30, T0
     c88:	6a 01       	movw	r12, r20
	movw ST32, T3
     c8a:	7c 01       	movw	r14, r24
	movw ST01, M1
     c8c:	18 01       	movw	r2, r16
	movw ST12, T2
     c8e:	3b 01       	movw	r6, r22
	.irp row, 0, 1, 2, 3
		.irp col, 0, 1, 2, 3
			ld r16, X+
			eor ST\row\col, r16
		.endr
	.endr
     c90:	0d 91       	ld	r16, X+
     c92:	10 26       	eor	r1, r16
     c94:	0d 91       	ld	r16, X+
     c96:	20 26       	eor	r2, r16
     c98:	0d 91       	ld	r16, X+
     c9a:	30 26       	eor	r3, r16
     c9c:	0d 91       	ld	r16, X+
     c9e:	00 26       	eor	r0, r16
     ca0:	0d 91       	ld	r16, X+
     ca2:	40 26       	eor	r4, r16
     ca4:	0d 91       	ld	r16, X+
     ca6:	50 26       	eor	r5, r16
     ca8:	0d 91       	ld	r16, X+
     caa:	60 26       	eor	r6, r16
     cac:	0d 91       	ld	r16, X+
     cae:	b0 26       	eor	r11, r16
     cb0:	0d 91       	ld	r16, X+
     cb2:	80 26       	eor	r8, r16
     cb4:	0d 91       	ld	r16, X+
     cb6:	90 26       	eor	r9, r16
     cb8:	0d 91       	ld	r16, X+
     cba:	a0 26       	eor	r10, r16
     cbc:	0d 91       	ld	r16, X+
     cbe:	70 26       	eor	r7, r16
     cc0:	0d 91       	ld	r16, X+
     cc2:	c0 26       	eor	r12, r16
     cc4:	0d 91       	ld	r16, X+
     cc6:	d0 26       	eor	r13, r16
     cc8:	0d 91       	ld	r16, X+
     cca:	e0 26       	eor	r14, r16
     ccc:	0d 91       	ld	r16, X+
     cce:	f0 26       	eor	r15, r16
	
	//9 Round------------------------------------------------------------------------------------------
	
	/* Shift Row and Subbyte , Mixcolumns */
	//! 1번째 열 시작
	mov r30, ST00 
     cd0:	e1 2d       	mov	r30, r1
	ld  M1, Z 
     cd2:	00 81       	ld	r16, Z
	mov M2, M1
     cd4:	10 2f       	mov	r17, r16
	mov M3, M2 
     cd6:	71 2f       	mov	r23, r17
	mov r28, ST00
     cd8:	c1 2d       	mov	r28, r1
	ld  M0, Y
     cda:	38 81       	ld	r19, Y
	eor M3, M0 ; 2, 1, 1, 3 완료
     cdc:	73 27       	eor	r23, r19

	mov r30, ST11
     cde:	e5 2d       	mov	r30, r5
	ld  T0, Z
     ce0:	40 81       	ld	r20, Z
	eor M0, T0
     ce2:	34 27       	eor	r19, r20
	eor M2, T0
     ce4:	14 27       	eor	r17, r20
	eor M3, T0 
     ce6:	74 27       	eor	r23, r20
	mov r28, ST11
     ce8:	c5 2d       	mov	r28, r5
	ld  T0, Y
     cea:	48 81       	ld	r20, Y
	eor M0, T0
     cec:	34 27       	eor	r19, r20
	eor M1, T0 ;3, 2, 2, 1 완료
     cee:	04 27       	eor	r16, r20

	mov r30, ST22
     cf0:	ea 2d       	mov	r30, r10
	ld  T0, Z
     cf2:	40 81       	ld	r20, Z
	eor M0, T0
     cf4:	34 27       	eor	r19, r20
	eor M1, T0
     cf6:	04 27       	eor	r16, r20
	eor M3, T0
     cf8:	74 27       	eor	r23, r20
	mov r28, ST22
     cfa:	ca 2d       	mov	r28, r10
	ld  T0, Y
     cfc:	48 81       	ld	r20, Y
	eor M1, T0
     cfe:	04 27       	eor	r16, r20
	eor M2, T0 ;1, 3, 2, 1 완료
     d00:	14 27       	eor	r17, r20

	mov r30, ST33
     d02:	ef 2d       	mov	r30, r15
	ld  T0, Z
     d04:	40 81       	ld	r20, Z
	eor M0, T0
     d06:	34 27       	eor	r19, r20
	eor M1, T0
     d08:	04 27       	eor	r16, r20
	eor M2, T0 
     d0a:	14 27       	eor	r17, r20
	mov r28, ST33
     d0c:	cf 2d       	mov	r28, r15
	ld  T0, Y
     d0e:	48 81       	ld	r20, Y
	eor M2, T0
     d10:	14 27       	eor	r17, r20
	eor M3, T0 ;1, 1, 3, 2 완료
     d12:	74 27       	eor	r23, r20

	mov ST00, M0
     d14:	13 2e       	mov	r1, r19
	//! 1번째 열 완료

	//! 2번째 열 시작
	mov r30, ST10 
     d16:	e4 2d       	mov	r30, r4
	ld  T1, Z 
     d18:	50 81       	ld	r21, Z
	mov T2, T1
     d1a:	65 2f       	mov	r22, r21
	mov T3, T2 
     d1c:	86 2f       	mov	r24, r22
	mov r28, ST10
     d1e:	c4 2d       	mov	r28, r4
	ld  T0, Y
     d20:	48 81       	ld	r20, Y
	eor T3, T0 ; 2, 1, 1, 3 완료
     d22:	84 27       	eor	r24, r20

	mov r30, ST21
     d24:	e9 2d       	mov	r30, r9
	ld  M0, Z
     d26:	30 81       	ld	r19, Z
	eor T0, M0
     d28:	43 27       	eor	r20, r19
	eor T2, M0
     d2a:	63 27       	eor	r22, r19
	eor T3, M0 
     d2c:	83 27       	eor	r24, r19
	mov r28, ST21
     d2e:	c9 2d       	mov	r28, r9
	ld  M0, Y
     d30:	38 81       	ld	r19, Y
	eor T0, M0
     d32:	43 27       	eor	r20, r19
	eor T1, M0 ;3, 2, 2, 1 완료
     d34:	53 27       	eor	r21, r19

	mov r30, ST32
     d36:	ee 2d       	mov	r30, r14
	ld  M0, Z
     d38:	30 81       	ld	r19, Z
	eor T0, M0
     d3a:	43 27       	eor	r20, r19
	eor T1, M0
     d3c:	53 27       	eor	r21, r19
	eor T3, M0 
     d3e:	83 27       	eor	r24, r19
	mov r28, ST32
     d40:	ce 2d       	mov	r28, r14
	ld  M0, Y
     d42:	38 81       	ld	r19, Y
	eor T1, M0
     d44:	53 27       	eor	r21, r19
	eor T2, M0 ;1, 3, 2, 1 완료
     d46:	63 27       	eor	r22, r19

	mov r30, ST03
     d48:	e0 2d       	mov	r30, r0
	ld  M0, Z
     d4a:	30 81       	ld	r19, Z
	eor T0, M0
     d4c:	43 27       	eor	r20, r19
	eor T1, M0
     d4e:	53 27       	eor	r21, r19
	eor T2, M0 
     d50:	63 27       	eor	r22, r19
	mov r28, ST03
     d52:	c0 2d       	mov	r28, r0
	ld  M0, Y
     d54:	38 81       	ld	r19, Y
	eor T2, M0
     d56:	63 27       	eor	r22, r19
	eor T3, M0 ;1, 1, 3, 2 완료
     d58:	83 27       	eor	r24, r19

	movw ST10, T0
     d5a:	2a 01       	movw	r4, r20
	;mov ST11, T1
	mov ST03, M3
     d5c:	07 2e       	mov	r0, r23
	//! 2번째 열 완료

	//! 3번째 열 시작
	mov r30, ST20 
     d5e:	e8 2d       	mov	r30, r8
	ld  T0, Z 
     d60:	40 81       	ld	r20, Z
	mov T1, T0
     d62:	54 2f       	mov	r21, r20
	mov M3, T1 
     d64:	75 2f       	mov	r23, r21
	mov r28, ST20
     d66:	c8 2d       	mov	r28, r8
	ld  M0, Y
     d68:	38 81       	ld	r19, Y
	eor M3, M0 ; 2, 1, 1, 3 완료
     d6a:	73 27       	eor	r23, r19

	mov r30, ST31
     d6c:	ed 2d       	mov	r30, r13
	ld  r25, Z
     d6e:	90 81       	ld	r25, Z
	eor M0, r25
     d70:	39 27       	eor	r19, r25
	eor T1, r25
     d72:	59 27       	eor	r21, r25
	eor M3, r25
     d74:	79 27       	eor	r23, r25
	mov r28, ST31
     d76:	cd 2d       	mov	r28, r13
	ld  r25, Y
     d78:	98 81       	ld	r25, Y
	eor M0, r25
     d7a:	39 27       	eor	r19, r25
	eor T0, r25 ;3, 2, 2, 1 완료
     d7c:	49 27       	eor	r20, r25

	mov r30, ST02
     d7e:	e3 2d       	mov	r30, r3
	ld  r25, Z
     d80:	90 81       	ld	r25, Z
	eor M0, r25
     d82:	39 27       	eor	r19, r25
	eor T0, r25
     d84:	49 27       	eor	r20, r25
	eor M3, r25
     d86:	79 27       	eor	r23, r25
	mov r28, ST02
     d88:	c3 2d       	mov	r28, r3
	ld  r25, Y
     d8a:	98 81       	ld	r25, Y
	eor T0, r25
     d8c:	49 27       	eor	r20, r25
	eor T1, r25;1, 3, 2, 1 완료
     d8e:	59 27       	eor	r21, r25

	mov r30, ST13
     d90:	eb 2d       	mov	r30, r11
	ld  r25, Z
     d92:	90 81       	ld	r25, Z
	eor M0, r25
     d94:	39 27       	eor	r19, r25
	eor T0, r25
     d96:	49 27       	eor	r20, r25
	eor T1, r25 
     d98:	59 27       	eor	r21, r25
	mov r28, ST13
     d9a:	cb 2d       	mov	r28, r11
	ld  r25, Y
     d9c:	98 81       	ld	r25, Y
	eor T1, r25
     d9e:	59 27       	eor	r21, r25
	eor M3, r25 ;1, 1, 3, 2 완료
     da0:	79 27       	eor	r23, r25

	mov ST20, M0
     da2:	83 2e       	mov	r8, r19
	mov ST21, T0
     da4:	94 2e       	mov	r9, r20
	mov ST22, T1
     da6:	a5 2e       	mov	r10, r21
	mov ST13, T3
     da8:	b8 2e       	mov	r11, r24
	//! 3번째 열 완료



	//! 4번째 열 시작
	mov r30, ST30 
     daa:	ec 2d       	mov	r30, r12
	ld  T1, Z 
     dac:	50 81       	ld	r21, Z
	mov T3, T1
     dae:	85 2f       	mov	r24, r21
	mov r25, T3 
     db0:	98 2f       	mov	r25, r24
	mov r28, ST30
     db2:	cc 2d       	mov	r28, r12
	ld  T0, Y
     db4:	48 81       	ld	r20, Y
	eor r25, T0 ; 2, 1, 1, 3 완료
     db6:	94 27       	eor	r25, r20

	mov r30, ST01
     db8:	e2 2d       	mov	r30, r2
	ld  M0, Z
     dba:	30 81       	ld	r19, Z
	eor T0, M0
     dbc:	43 27       	eor	r20, r19
	eor T3, M0
     dbe:	83 27       	eor	r24, r19
	eor r25, M0 
     dc0:	93 27       	eor	r25, r19
	mov r28, ST01
     dc2:	c2 2d       	mov	r28, r2
	ld  M0, Y
     dc4:	38 81       	ld	r19, Y
	eor T0, M0
     dc6:	43 27       	eor	r20, r19
	eor T1, M0 ;3, 2, 2, 1 완료
     dc8:	53 27       	eor	r21, r19

	mov r30, ST12
     dca:	e6 2d       	mov	r30, r6
	ld  M0, Z
     dcc:	30 81       	ld	r19, Z
	eor T0, M0
     dce:	43 27       	eor	r20, r19
	eor T1, M0
     dd0:	53 27       	eor	r21, r19
	eor r25, M0 
     dd2:	93 27       	eor	r25, r19
	mov r28, ST12
     dd4:	c6 2d       	mov	r28, r6
	ld  M0, Y
     dd6:	38 81       	ld	r19, Y
	eor T1, M0
     dd8:	53 27       	eor	r21, r19
	eor T3, M0 ;1, 3, 2, 1 완료
     dda:	83 27       	eor	r24, r19

	mov r30, ST23
     ddc:	e7 2d       	mov	r30, r7
	ld  M0, Z
     dde:	30 81       	ld	r19, Z
	eor T0, M0
     de0:	43 27       	eor	r20, r19
	eor T1, M0
     de2:	53 27       	eor	r21, r19
	eor T3, M0 
     de4:	83 27       	eor	r24, r19
	mov r28, ST23
     de6:	c7 2d       	mov	r28, r7
	ld  M0, Y
     de8:	38 81       	ld	r19, Y
	eor T3, M0
     dea:	83 27       	eor	r24, r19
	eor r25, M0 ;1, 1, 3, 2 완료
     dec:	93 27       	eor	r25, r19

	movw ST30, T0
     dee:	6a 01       	movw	r12, r20
	movw ST32, T3
     df0:	7c 01       	movw	r14, r24
	movw ST01, M1
     df2:	18 01       	movw	r2, r16
	movw ST12, T2
     df4:	3b 01       	movw	r6, r22
	.irp row, 0, 1, 2, 3
		.irp col, 0, 1, 2, 3
			ld r16, X+
			eor ST\row\col, r16
		.endr
	.endr
     df6:	0d 91       	ld	r16, X+
     df8:	10 26       	eor	r1, r16
     dfa:	0d 91       	ld	r16, X+
     dfc:	20 26       	eor	r2, r16
     dfe:	0d 91       	ld	r16, X+
     e00:	30 26       	eor	r3, r16
     e02:	0d 91       	ld	r16, X+
     e04:	00 26       	eor	r0, r16
     e06:	0d 91       	ld	r16, X+
     e08:	40 26       	eor	r4, r16
     e0a:	0d 91       	ld	r16, X+
     e0c:	50 26       	eor	r5, r16
     e0e:	0d 91       	ld	r16, X+
     e10:	60 26       	eor	r6, r16
     e12:	0d 91       	ld	r16, X+
     e14:	b0 26       	eor	r11, r16
     e16:	0d 91       	ld	r16, X+
     e18:	80 26       	eor	r8, r16
     e1a:	0d 91       	ld	r16, X+
     e1c:	90 26       	eor	r9, r16
     e1e:	0d 91       	ld	r16, X+
     e20:	a0 26       	eor	r10, r16
     e22:	0d 91       	ld	r16, X+
     e24:	70 26       	eor	r7, r16
     e26:	0d 91       	ld	r16, X+
     e28:	c0 26       	eor	r12, r16
     e2a:	0d 91       	ld	r16, X+
     e2c:	d0 26       	eor	r13, r16
     e2e:	0d 91       	ld	r16, X+
     e30:	e0 26       	eor	r14, r16
     e32:	0d 91       	ld	r16, X+
     e34:	f0 26       	eor	r15, r16
	
	//10 Round------------------------------------------------------------------------------------------
	
	/* Shift Row and Subbyte , Mixcolumns */
	//! 1번째 열 시작
	mov r30, ST00 
     e36:	e1 2d       	mov	r30, r1
	ld  M1, Z 
     e38:	00 81       	ld	r16, Z
	mov M2, M1
     e3a:	10 2f       	mov	r17, r16
	mov M3, M2 
     e3c:	71 2f       	mov	r23, r17
	mov r28, ST00
     e3e:	c1 2d       	mov	r28, r1
	ld  M0, Y
     e40:	38 81       	ld	r19, Y
	eor M3, M0 ; 2, 1, 1, 3 완료
     e42:	73 27       	eor	r23, r19

	mov r30, ST11
     e44:	e5 2d       	mov	r30, r5
	ld  T0, Z
     e46:	40 81       	ld	r20, Z
	eor M0, T0
     e48:	34 27       	eor	r19, r20
	eor M2, T0
     e4a:	14 27       	eor	r17, r20
	eor M3, T0 
     e4c:	74 27       	eor	r23, r20
	mov r28, ST11
     e4e:	c5 2d       	mov	r28, r5
	ld  T0, Y
     e50:	48 81       	ld	r20, Y
	eor M0, T0
     e52:	34 27       	eor	r19, r20
	eor M1, T0 ;3, 2, 2, 1 완료
     e54:	04 27       	eor	r16, r20

	mov r30, ST22
     e56:	ea 2d       	mov	r30, r10
	ld  T0, Z
     e58:	40 81       	ld	r20, Z
	eor M0, T0
     e5a:	34 27       	eor	r19, r20
	eor M1, T0
     e5c:	04 27       	eor	r16, r20
	eor M3, T0
     e5e:	74 27       	eor	r23, r20
	mov r28, ST22
     e60:	ca 2d       	mov	r28, r10
	ld  T0, Y
     e62:	48 81       	ld	r20, Y
	eor M1, T0
     e64:	04 27       	eor	r16, r20
	eor M2, T0 ;1, 3, 2, 1 완료
     e66:	14 27       	eor	r17, r20

	mov r30, ST33
     e68:	ef 2d       	mov	r30, r15
	ld  T0, Z
     e6a:	40 81       	ld	r20, Z
	eor M0, T0
     e6c:	34 27       	eor	r19, r20
	eor M1, T0
     e6e:	04 27       	eor	r16, r20
	eor M2, T0 
     e70:	14 27       	eor	r17, r20
	mov r28, ST33
     e72:	cf 2d       	mov	r28, r15
	ld  T0, Y
     e74:	48 81       	ld	r20, Y
	eor M2, T0
     e76:	14 27       	eor	r17, r20
	eor M3, T0 ;1, 1, 3, 2 완료
     e78:	74 27       	eor	r23, r20

	mov ST00, M0
     e7a:	13 2e       	mov	r1, r19
	//! 1번째 열 완료

	//! 2번째 열 시작
	mov r30, ST10 
     e7c:	e4 2d       	mov	r30, r4
	ld  T1, Z 
     e7e:	50 81       	ld	r21, Z
	mov T2, T1
     e80:	65 2f       	mov	r22, r21
	mov T3, T2 
     e82:	86 2f       	mov	r24, r22
	mov r28, ST10
     e84:	c4 2d       	mov	r28, r4
	ld  T0, Y
     e86:	48 81       	ld	r20, Y
	eor T3, T0 ; 2, 1, 1, 3 완료
     e88:	84 27       	eor	r24, r20

	mov r30, ST21
     e8a:	e9 2d       	mov	r30, r9
	ld  M0, Z
     e8c:	30 81       	ld	r19, Z
	eor T0, M0
     e8e:	43 27       	eor	r20, r19
	eor T2, M0
     e90:	63 27       	eor	r22, r19
	eor T3, M0 
     e92:	83 27       	eor	r24, r19
	mov r28, ST21
     e94:	c9 2d       	mov	r28, r9
	ld  M0, Y
     e96:	38 81       	ld	r19, Y
	eor T0, M0
     e98:	43 27       	eor	r20, r19
	eor T1, M0 ;3, 2, 2, 1 완료
     e9a:	53 27       	eor	r21, r19

	mov r30, ST32
     e9c:	ee 2d       	mov	r30, r14
	ld  M0, Z
     e9e:	30 81       	ld	r19, Z
	eor T0, M0
     ea0:	43 27       	eor	r20, r19
	eor T1, M0
     ea2:	53 27       	eor	r21, r19
	eor T3, M0 
     ea4:	83 27       	eor	r24, r19
	mov r28, ST32
     ea6:	ce 2d       	mov	r28, r14
	ld  M0, Y
     ea8:	38 81       	ld	r19, Y
	eor T1, M0
     eaa:	53 27       	eor	r21, r19
	eor T2, M0 ;1, 3, 2, 1 완료
     eac:	63 27       	eor	r22, r19

	mov r30, ST03
     eae:	e0 2d       	mov	r30, r0
	ld  M0, Z
     eb0:	30 81       	ld	r19, Z
	eor T0, M0
     eb2:	43 27       	eor	r20, r19
	eor T1, M0
     eb4:	53 27       	eor	r21, r19
	eor T2, M0 
     eb6:	63 27       	eor	r22, r19
	mov r28, ST03
     eb8:	c0 2d       	mov	r28, r0
	ld  M0, Y
     eba:	38 81       	ld	r19, Y
	eor T2, M0
     ebc:	63 27       	eor	r22, r19
	eor T3, M0 ;1, 1, 3, 2 완료
     ebe:	83 27       	eor	r24, r19

	movw ST10, T0
     ec0:	2a 01       	movw	r4, r20
	;mov ST11, T1
	mov ST03, M3
     ec2:	07 2e       	mov	r0, r23
	//! 2번째 열 완료

	//! 3번째 열 시작
	mov r30, ST20 
     ec4:	e8 2d       	mov	r30, r8
	ld  T0, Z 
     ec6:	40 81       	ld	r20, Z
	mov T1, T0
     ec8:	54 2f       	mov	r21, r20
	mov M3, T1 
     eca:	75 2f       	mov	r23, r21
	mov r28, ST20
     ecc:	c8 2d       	mov	r28, r8
	ld  M0, Y
     ece:	38 81       	ld	r19, Y
	eor M3, M0 ; 2, 1, 1, 3 완료
     ed0:	73 27       	eor	r23, r19

	mov r30, ST31
     ed2:	ed 2d       	mov	r30, r13
	ld  r25, Z
     ed4:	90 81       	ld	r25, Z
	eor M0, r25
     ed6:	39 27       	eor	r19, r25
	eor T1, r25
     ed8:	59 27       	eor	r21, r25
	eor M3, r25
     eda:	79 27       	eor	r23, r25
	mov r28, ST31
     edc:	cd 2d       	mov	r28, r13
	ld  r25, Y
     ede:	98 81       	ld	r25, Y
	eor M0, r25
     ee0:	39 27       	eor	r19, r25
	eor T0, r25 ;3, 2, 2, 1 완료
     ee2:	49 27       	eor	r20, r25

	mov r30, ST02
     ee4:	e3 2d       	mov	r30, r3
	ld  r25, Z
     ee6:	90 81       	ld	r25, Z
	eor M0, r25
     ee8:	39 27       	eor	r19, r25
	eor T0, r25
     eea:	49 27       	eor	r20, r25
	eor M3, r25
     eec:	79 27       	eor	r23, r25
	mov r28, ST02
     eee:	c3 2d       	mov	r28, r3
	ld  r25, Y
     ef0:	98 81       	ld	r25, Y
	eor T0, r25
     ef2:	49 27       	eor	r20, r25
	eor T1, r25;1, 3, 2, 1 완료
     ef4:	59 27       	eor	r21, r25

	mov r30, ST13
     ef6:	eb 2d       	mov	r30, r11
	ld  r25, Z
     ef8:	90 81       	ld	r25, Z
	eor M0, r25
     efa:	39 27       	eor	r19, r25
	eor T0, r25
     efc:	49 27       	eor	r20, r25
	eor T1, r25 
     efe:	59 27       	eor	r21, r25
	mov r28, ST13
     f00:	cb 2d       	mov	r28, r11
	ld  r25, Y
     f02:	98 81       	ld	r25, Y
	eor T1, r25
     f04:	59 27       	eor	r21, r25
	eor M3, r25 ;1, 1, 3, 2 완료
     f06:	79 27       	eor	r23, r25

	mov ST20, M0
     f08:	83 2e       	mov	r8, r19
	mov ST21, T0
     f0a:	94 2e       	mov	r9, r20
	mov ST22, T1
     f0c:	a5 2e       	mov	r10, r21
	mov ST13, T3
     f0e:	b8 2e       	mov	r11, r24
	//! 3번째 열 완료



	//! 4번째 열 시작
	mov r30, ST30 
     f10:	ec 2d       	mov	r30, r12
	ld  T1, Z 
     f12:	50 81       	ld	r21, Z
	mov T3, T1
     f14:	85 2f       	mov	r24, r21
	mov r25, T3 
     f16:	98 2f       	mov	r25, r24
	mov r28, ST30
     f18:	cc 2d       	mov	r28, r12
	ld  T0, Y
     f1a:	48 81       	ld	r20, Y
	eor r25, T0 ; 2, 1, 1, 3 완료
     f1c:	94 27       	eor	r25, r20

	mov r30, ST01
     f1e:	e2 2d       	mov	r30, r2
	ld  M0, Z
     f20:	30 81       	ld	r19, Z
	eor T0, M0
     f22:	43 27       	eor	r20, r19
	eor T3, M0
     f24:	83 27       	eor	r24, r19
	eor r25, M0 
     f26:	93 27       	eor	r25, r19
	mov r28, ST01
     f28:	c2 2d       	mov	r28, r2
	ld  M0, Y
     f2a:	38 81       	ld	r19, Y
	eor T0, M0
     f2c:	43 27       	eor	r20, r19
	eor T1, M0 ;3, 2, 2, 1 완료
     f2e:	53 27       	eor	r21, r19

	mov r30, ST12
     f30:	e6 2d       	mov	r30, r6
	ld  M0, Z
     f32:	30 81       	ld	r19, Z
	eor T0, M0
     f34:	43 27       	eor	r20, r19
	eor T1, M0
     f36:	53 27       	eor	r21, r19
	eor r25, M0 
     f38:	93 27       	eor	r25, r19
	mov r28, ST12
     f3a:	c6 2d       	mov	r28, r6
	ld  M0, Y
     f3c:	38 81       	ld	r19, Y
	eor T1, M0
     f3e:	53 27       	eor	r21, r19
	eor T3, M0 ;1, 3, 2, 1 완료
     f40:	83 27       	eor	r24, r19

	mov r30, ST23
     f42:	e7 2d       	mov	r30, r7
	ld  M0, Z
     f44:	30 81       	ld	r19, Z
	eor T0, M0
     f46:	43 27       	eor	r20, r19
	eor T1, M0
     f48:	53 27       	eor	r21, r19
	eor T3, M0 
     f4a:	83 27       	eor	r24, r19
	mov r28, ST23
     f4c:	c7 2d       	mov	r28, r7
	ld  M0, Y
     f4e:	38 81       	ld	r19, Y
	eor T3, M0
     f50:	83 27       	eor	r24, r19
	eor r25, M0 ;1, 1, 3, 2 완료
     f52:	93 27       	eor	r25, r19

	movw ST30, T0
     f54:	6a 01       	movw	r12, r20
	movw ST32, T3
     f56:	7c 01       	movw	r14, r24
	movw ST01, M1
     f58:	18 01       	movw	r2, r16
	movw ST12, T2
     f5a:	3b 01       	movw	r6, r22
	.irp row, 0, 1, 2, 3
		.irp col, 0, 1, 2, 3
			ld r16, X+
			eor ST\row\col, r16
		.endr
	.endr
     f5c:	0d 91       	ld	r16, X+
     f5e:	10 26       	eor	r1, r16
     f60:	0d 91       	ld	r16, X+
     f62:	20 26       	eor	r2, r16
     f64:	0d 91       	ld	r16, X+
     f66:	30 26       	eor	r3, r16
     f68:	0d 91       	ld	r16, X+
     f6a:	00 26       	eor	r0, r16
     f6c:	0d 91       	ld	r16, X+
     f6e:	40 26       	eor	r4, r16
     f70:	0d 91       	ld	r16, X+
     f72:	50 26       	eor	r5, r16
     f74:	0d 91       	ld	r16, X+
     f76:	60 26       	eor	r6, r16
     f78:	0d 91       	ld	r16, X+
     f7a:	b0 26       	eor	r11, r16
     f7c:	0d 91       	ld	r16, X+
     f7e:	80 26       	eor	r8, r16
     f80:	0d 91       	ld	r16, X+
     f82:	90 26       	eor	r9, r16
     f84:	0d 91       	ld	r16, X+
     f86:	a0 26       	eor	r10, r16
     f88:	0d 91       	ld	r16, X+
     f8a:	70 26       	eor	r7, r16
     f8c:	0d 91       	ld	r16, X+
     f8e:	c0 26       	eor	r12, r16
     f90:	0d 91       	ld	r16, X+
     f92:	d0 26       	eor	r13, r16
     f94:	0d 91       	ld	r16, X+
     f96:	e0 26       	eor	r14, r16
     f98:	0d 91       	ld	r16, X+
     f9a:	f0 26       	eor	r15, r16
	
	//11 Round------------------------------------------------------------------------------------------
	
	/* Shift Row and Subbyte , Mixcolumns */
	//! 1번째 열 시작
	mov r30, ST00 
     f9c:	e1 2d       	mov	r30, r1
	ld  M1, Z 
     f9e:	00 81       	ld	r16, Z
	mov M2, M1
     fa0:	10 2f       	mov	r17, r16
	mov M3, M2 
     fa2:	71 2f       	mov	r23, r17
	mov r28, ST00
     fa4:	c1 2d       	mov	r28, r1
	ld  M0, Y
     fa6:	38 81       	ld	r19, Y
	eor M3, M0 ; 2, 1, 1, 3 완료
     fa8:	73 27       	eor	r23, r19

	mov r30, ST11
     faa:	e5 2d       	mov	r30, r5
	ld  T0, Z
     fac:	40 81       	ld	r20, Z
	eor M0, T0
     fae:	34 27       	eor	r19, r20
	eor M2, T0
     fb0:	14 27       	eor	r17, r20
	eor M3, T0 
     fb2:	74 27       	eor	r23, r20
	mov r28, ST11
     fb4:	c5 2d       	mov	r28, r5
	ld  T0, Y
     fb6:	48 81       	ld	r20, Y
	eor M0, T0
     fb8:	34 27       	eor	r19, r20
	eor M1, T0 ;3, 2, 2, 1 완료
     fba:	04 27       	eor	r16, r20

	mov r30, ST22
     fbc:	ea 2d       	mov	r30, r10
	ld  T0, Z
     fbe:	40 81       	ld	r20, Z
	eor M0, T0
     fc0:	34 27       	eor	r19, r20
	eor M1, T0
     fc2:	04 27       	eor	r16, r20
	eor M3, T0
     fc4:	74 27       	eor	r23, r20
	mov r28, ST22
     fc6:	ca 2d       	mov	r28, r10
	ld  T0, Y
     fc8:	48 81       	ld	r20, Y
	eor M1, T0
     fca:	04 27       	eor	r16, r20
	eor M2, T0 ;1, 3, 2, 1 완료
     fcc:	14 27       	eor	r17, r20

	mov r30, ST33
     fce:	ef 2d       	mov	r30, r15
	ld  T0, Z
     fd0:	40 81       	ld	r20, Z
	eor M0, T0
     fd2:	34 27       	eor	r19, r20
	eor M1, T0
     fd4:	04 27       	eor	r16, r20
	eor M2, T0 
     fd6:	14 27       	eor	r17, r20
	mov r28, ST33
     fd8:	cf 2d       	mov	r28, r15
	ld  T0, Y
     fda:	48 81       	ld	r20, Y
	eor M2, T0
     fdc:	14 27       	eor	r17, r20
	eor M3, T0 ;1, 1, 3, 2 완료
     fde:	74 27       	eor	r23, r20

	mov ST00, M0
     fe0:	13 2e       	mov	r1, r19
	//! 1번째 열 완료

	//! 2번째 열 시작
	mov r30, ST10 
     fe2:	e4 2d       	mov	r30, r4
	ld  T1, Z 
     fe4:	50 81       	ld	r21, Z
	mov T2, T1
     fe6:	65 2f       	mov	r22, r21
	mov T3, T2 
     fe8:	86 2f       	mov	r24, r22
	mov r28, ST10
     fea:	c4 2d       	mov	r28, r4
	ld  T0, Y
     fec:	48 81       	ld	r20, Y
	eor T3, T0 ; 2, 1, 1, 3 완료
     fee:	84 27       	eor	r24, r20

	mov r30, ST21
     ff0:	e9 2d       	mov	r30, r9
	ld  M0, Z
     ff2:	30 81       	ld	r19, Z
	eor T0, M0
     ff4:	43 27       	eor	r20, r19
	eor T2, M0
     ff6:	63 27       	eor	r22, r19
	eor T3, M0 
     ff8:	83 27       	eor	r24, r19
	mov r28, ST21
     ffa:	c9 2d       	mov	r28, r9
	ld  M0, Y
     ffc:	38 81       	ld	r19, Y
	eor T0, M0
     ffe:	43 27       	eor	r20, r19
	eor T1, M0 ;3, 2, 2, 1 완료
    1000:	53 27       	eor	r21, r19

	mov r30, ST32
    1002:	ee 2d       	mov	r30, r14
	ld  M0, Z
    1004:	30 81       	ld	r19, Z
	eor T0, M0
    1006:	43 27       	eor	r20, r19
	eor T1, M0
    1008:	53 27       	eor	r21, r19
	eor T3, M0 
    100a:	83 27       	eor	r24, r19
	mov r28, ST32
    100c:	ce 2d       	mov	r28, r14
	ld  M0, Y
    100e:	38 81       	ld	r19, Y
	eor T1, M0
    1010:	53 27       	eor	r21, r19
	eor T2, M0 ;1, 3, 2, 1 완료
    1012:	63 27       	eor	r22, r19

	mov r30, ST03
    1014:	e0 2d       	mov	r30, r0
	ld  M0, Z
    1016:	30 81       	ld	r19, Z
	eor T0, M0
    1018:	43 27       	eor	r20, r19
	eor T1, M0
    101a:	53 27       	eor	r21, r19
	eor T2, M0 
    101c:	63 27       	eor	r22, r19
	mov r28, ST03
    101e:	c0 2d       	mov	r28, r0
	ld  M0, Y
    1020:	38 81       	ld	r19, Y
	eor T2, M0
    1022:	63 27       	eor	r22, r19
	eor T3, M0 ;1, 1, 3, 2 완료
    1024:	83 27       	eor	r24, r19

	movw ST10, T0
    1026:	2a 01       	movw	r4, r20
	;mov ST11, T1
	mov ST03, M3
    1028:	07 2e       	mov	r0, r23
	//! 2번째 열 완료

	//! 3번째 열 시작
	mov r30, ST20 
    102a:	e8 2d       	mov	r30, r8
	ld  T0, Z 
    102c:	40 81       	ld	r20, Z
	mov T1, T0
    102e:	54 2f       	mov	r21, r20
	mov M3, T1 
    1030:	75 2f       	mov	r23, r21
	mov r28, ST20
    1032:	c8 2d       	mov	r28, r8
	ld  M0, Y
    1034:	38 81       	ld	r19, Y
	eor M3, M0 ; 2, 1, 1, 3 완료
    1036:	73 27       	eor	r23, r19

	mov r30, ST31
    1038:	ed 2d       	mov	r30, r13
	ld  r25, Z
    103a:	90 81       	ld	r25, Z
	eor M0, r25
    103c:	39 27       	eor	r19, r25
	eor T1, r25
    103e:	59 27       	eor	r21, r25
	eor M3, r25
    1040:	79 27       	eor	r23, r25
	mov r28, ST31
    1042:	cd 2d       	mov	r28, r13
	ld  r25, Y
    1044:	98 81       	ld	r25, Y
	eor M0, r25
    1046:	39 27       	eor	r19, r25
	eor T0, r25 ;3, 2, 2, 1 완료
    1048:	49 27       	eor	r20, r25

	mov r30, ST02
    104a:	e3 2d       	mov	r30, r3
	ld  r25, Z
    104c:	90 81       	ld	r25, Z
	eor M0, r25
    104e:	39 27       	eor	r19, r25
	eor T0, r25
    1050:	49 27       	eor	r20, r25
	eor M3, r25
    1052:	79 27       	eor	r23, r25
	mov r28, ST02
    1054:	c3 2d       	mov	r28, r3
	ld  r25, Y
    1056:	98 81       	ld	r25, Y
	eor T0, r25
    1058:	49 27       	eor	r20, r25
	eor T1, r25;1, 3, 2, 1 완료
    105a:	59 27       	eor	r21, r25

	mov r30, ST13
    105c:	eb 2d       	mov	r30, r11
	ld  r25, Z
    105e:	90 81       	ld	r25, Z
	eor M0, r25
    1060:	39 27       	eor	r19, r25
	eor T0, r25
    1062:	49 27       	eor	r20, r25
	eor T1, r25 
    1064:	59 27       	eor	r21, r25
	mov r28, ST13
    1066:	cb 2d       	mov	r28, r11
	ld  r25, Y
    1068:	98 81       	ld	r25, Y
	eor T1, r25
    106a:	59 27       	eor	r21, r25
	eor M3, r25 ;1, 1, 3, 2 완료
    106c:	79 27       	eor	r23, r25

	mov ST20, M0
    106e:	83 2e       	mov	r8, r19
	mov ST21, T0
    1070:	94 2e       	mov	r9, r20
	mov ST22, T1
    1072:	a5 2e       	mov	r10, r21
	mov ST13, T3
    1074:	b8 2e       	mov	r11, r24
	//! 3번째 열 완료



	//! 4번째 열 시작
	mov r30, ST30 
    1076:	ec 2d       	mov	r30, r12
	ld  T1, Z 
    1078:	50 81       	ld	r21, Z
	mov T3, T1
    107a:	85 2f       	mov	r24, r21
	mov r25, T3 
    107c:	98 2f       	mov	r25, r24
	mov r28, ST30
    107e:	cc 2d       	mov	r28, r12
	ld  T0, Y
    1080:	48 81       	ld	r20, Y
	eor r25, T0 ; 2, 1, 1, 3 완료
    1082:	94 27       	eor	r25, r20

	mov r30, ST01
    1084:	e2 2d       	mov	r30, r2
	ld  M0, Z
    1086:	30 81       	ld	r19, Z
	eor T0, M0
    1088:	43 27       	eor	r20, r19
	eor T3, M0
    108a:	83 27       	eor	r24, r19
	eor r25, M0 
    108c:	93 27       	eor	r25, r19
	mov r28, ST01
    108e:	c2 2d       	mov	r28, r2
	ld  M0, Y
    1090:	38 81       	ld	r19, Y
	eor T0, M0
    1092:	43 27       	eor	r20, r19
	eor T1, M0 ;3, 2, 2, 1 완료
    1094:	53 27       	eor	r21, r19

	mov r30, ST12
    1096:	e6 2d       	mov	r30, r6
	ld  M0, Z
    1098:	30 81       	ld	r19, Z
	eor T0, M0
    109a:	43 27       	eor	r20, r19
	eor T1, M0
    109c:	53 27       	eor	r21, r19
	eor r25, M0 
    109e:	93 27       	eor	r25, r19
	mov r28, ST12
    10a0:	c6 2d       	mov	r28, r6
	ld  M0, Y
    10a2:	38 81       	ld	r19, Y
	eor T1, M0
    10a4:	53 27       	eor	r21, r19
	eor T3, M0 ;1, 3, 2, 1 완료
    10a6:	83 27       	eor	r24, r19

	mov r30, ST23
    10a8:	e7 2d       	mov	r30, r7
	ld  M0, Z
    10aa:	30 81       	ld	r19, Z
	eor T0, M0
    10ac:	43 27       	eor	r20, r19
	eor T1, M0
    10ae:	53 27       	eor	r21, r19
	eor T3, M0 
    10b0:	83 27       	eor	r24, r19
	mov r28, ST23
    10b2:	c7 2d       	mov	r28, r7
	ld  M0, Y
    10b4:	38 81       	ld	r19, Y
	eor T3, M0
    10b6:	83 27       	eor	r24, r19
	eor r25, M0 ;1, 1, 3, 2 완료
    10b8:	93 27       	eor	r25, r19

	movw ST30, T0
    10ba:	6a 01       	movw	r12, r20
	movw ST32, T3
    10bc:	7c 01       	movw	r14, r24
	movw ST01, M1
    10be:	18 01       	movw	r2, r16
	movw ST12, T2
    10c0:	3b 01       	movw	r6, r22
	.irp row, 0, 1, 2, 3
		.irp col, 0, 1, 2, 3
			ld r16, X+
			eor ST\row\col, r16
		.endr
	.endr
    10c2:	0d 91       	ld	r16, X+
    10c4:	10 26       	eor	r1, r16
    10c6:	0d 91       	ld	r16, X+
    10c8:	20 26       	eor	r2, r16
    10ca:	0d 91       	ld	r16, X+
    10cc:	30 26       	eor	r3, r16
    10ce:	0d 91       	ld	r16, X+
    10d0:	00 26       	eor	r0, r16
    10d2:	0d 91       	ld	r16, X+
    10d4:	40 26       	eor	r4, r16
    10d6:	0d 91       	ld	r16, X+
    10d8:	50 26       	eor	r5, r16
    10da:	0d 91       	ld	r16, X+
    10dc:	60 26       	eor	r6, r16
    10de:	0d 91       	ld	r16, X+
    10e0:	b0 26       	eor	r11, r16
    10e2:	0d 91       	ld	r16, X+
    10e4:	80 26       	eor	r8, r16
    10e6:	0d 91       	ld	r16, X+
    10e8:	90 26       	eor	r9, r16
    10ea:	0d 91       	ld	r16, X+
    10ec:	a0 26       	eor	r10, r16
    10ee:	0d 91       	ld	r16, X+
    10f0:	70 26       	eor	r7, r16
    10f2:	0d 91       	ld	r16, X+
    10f4:	c0 26       	eor	r12, r16
    10f6:	0d 91       	ld	r16, X+
    10f8:	d0 26       	eor	r13, r16
    10fa:	0d 91       	ld	r16, X+
    10fc:	e0 26       	eor	r14, r16
    10fe:	0d 91       	ld	r16, X+
    1100:	f0 26       	eor	r15, r16
	//12 Round------------------------------------------------------------------------------------------
	
	/* Shift Row and Subbyte , Mixcolumns */
	//! 1번째 열 시작
	mov r30, ST00 
    1102:	e1 2d       	mov	r30, r1
	ld  M1, Z 
    1104:	00 81       	ld	r16, Z
	mov M2, M1
    1106:	10 2f       	mov	r17, r16
	mov M3, M2 
    1108:	71 2f       	mov	r23, r17
	mov r28, ST00
    110a:	c1 2d       	mov	r28, r1
	ld  M0, Y
    110c:	38 81       	ld	r19, Y
	eor M3, M0 ; 2, 1, 1, 3 완료
    110e:	73 27       	eor	r23, r19

	mov r30, ST11
    1110:	e5 2d       	mov	r30, r5
	ld  T0, Z
    1112:	40 81       	ld	r20, Z
	eor M0, T0
    1114:	34 27       	eor	r19, r20
	eor M2, T0
    1116:	14 27       	eor	r17, r20
	eor M3, T0 
    1118:	74 27       	eor	r23, r20
	mov r28, ST11
    111a:	c5 2d       	mov	r28, r5
	ld  T0, Y
    111c:	48 81       	ld	r20, Y
	eor M0, T0
    111e:	34 27       	eor	r19, r20
	eor M1, T0 ;3, 2, 2, 1 완료
    1120:	04 27       	eor	r16, r20

	mov r30, ST22
    1122:	ea 2d       	mov	r30, r10
	ld  T0, Z
    1124:	40 81       	ld	r20, Z
	eor M0, T0
    1126:	34 27       	eor	r19, r20
	eor M1, T0
    1128:	04 27       	eor	r16, r20
	eor M3, T0
    112a:	74 27       	eor	r23, r20
	mov r28, ST22
    112c:	ca 2d       	mov	r28, r10
	ld  T0, Y
    112e:	48 81       	ld	r20, Y
	eor M1, T0
    1130:	04 27       	eor	r16, r20
	eor M2, T0 ;1, 3, 2, 1 완료
    1132:	14 27       	eor	r17, r20

	mov r30, ST33
    1134:	ef 2d       	mov	r30, r15
	ld  T0, Z
    1136:	40 81       	ld	r20, Z
	eor M0, T0
    1138:	34 27       	eor	r19, r20
	eor M1, T0
    113a:	04 27       	eor	r16, r20
	eor M2, T0 
    113c:	14 27       	eor	r17, r20
	mov r28, ST33
    113e:	cf 2d       	mov	r28, r15
	ld  T0, Y
    1140:	48 81       	ld	r20, Y
	eor M2, T0
    1142:	14 27       	eor	r17, r20
	eor M3, T0 ;1, 1, 3, 2 완료
    1144:	74 27       	eor	r23, r20

	mov ST00, M0
    1146:	13 2e       	mov	r1, r19
	//! 1번째 열 완료

	//! 2번째 열 시작
	mov r30, ST10 
    1148:	e4 2d       	mov	r30, r4
	ld  T1, Z 
    114a:	50 81       	ld	r21, Z
	mov T2, T1
    114c:	65 2f       	mov	r22, r21
	mov T3, T2 
    114e:	86 2f       	mov	r24, r22
	mov r28, ST10
    1150:	c4 2d       	mov	r28, r4
	ld  T0, Y
    1152:	48 81       	ld	r20, Y
	eor T3, T0 ; 2, 1, 1, 3 완료
    1154:	84 27       	eor	r24, r20

	mov r30, ST21
    1156:	e9 2d       	mov	r30, r9
	ld  M0, Z
    1158:	30 81       	ld	r19, Z
	eor T0, M0
    115a:	43 27       	eor	r20, r19
	eor T2, M0
    115c:	63 27       	eor	r22, r19
	eor T3, M0 
    115e:	83 27       	eor	r24, r19
	mov r28, ST21
    1160:	c9 2d       	mov	r28, r9
	ld  M0, Y
    1162:	38 81       	ld	r19, Y
	eor T0, M0
    1164:	43 27       	eor	r20, r19
	eor T1, M0 ;3, 2, 2, 1 완료
    1166:	53 27       	eor	r21, r19

	mov r30, ST32
    1168:	ee 2d       	mov	r30, r14
	ld  M0, Z
    116a:	30 81       	ld	r19, Z
	eor T0, M0
    116c:	43 27       	eor	r20, r19
	eor T1, M0
    116e:	53 27       	eor	r21, r19
	eor T3, M0 
    1170:	83 27       	eor	r24, r19
	mov r28, ST32
    1172:	ce 2d       	mov	r28, r14
	ld  M0, Y
    1174:	38 81       	ld	r19, Y
	eor T1, M0
    1176:	53 27       	eor	r21, r19
	eor T2, M0 ;1, 3, 2, 1 완료
    1178:	63 27       	eor	r22, r19

	mov r30, ST03
    117a:	e0 2d       	mov	r30, r0
	ld  M0, Z
    117c:	30 81       	ld	r19, Z
	eor T0, M0
    117e:	43 27       	eor	r20, r19
	eor T1, M0
    1180:	53 27       	eor	r21, r19
	eor T2, M0 
    1182:	63 27       	eor	r22, r19
	mov r28, ST03
    1184:	c0 2d       	mov	r28, r0
	ld  M0, Y
    1186:	38 81       	ld	r19, Y
	eor T2, M0
    1188:	63 27       	eor	r22, r19
	eor T3, M0 ;1, 1, 3, 2 완료
    118a:	83 27       	eor	r24, r19

	movw ST10, T0
    118c:	2a 01       	movw	r4, r20
	;mov ST11, T1
	mov ST03, M3
    118e:	07 2e       	mov	r0, r23
	//! 2번째 열 완료

	//! 3번째 열 시작
	mov r30, ST20 
    1190:	e8 2d       	mov	r30, r8
	ld  T0, Z 
    1192:	40 81       	ld	r20, Z
	mov T1, T0
    1194:	54 2f       	mov	r21, r20
	mov M3, T1 
    1196:	75 2f       	mov	r23, r21
	mov r28, ST20
    1198:	c8 2d       	mov	r28, r8
	ld  M0, Y
    119a:	38 81       	ld	r19, Y
	eor M3, M0 ; 2, 1, 1, 3 완료
    119c:	73 27       	eor	r23, r19

	mov r30, ST31
    119e:	ed 2d       	mov	r30, r13
	ld  r25, Z
    11a0:	90 81       	ld	r25, Z
	eor M0, r25
    11a2:	39 27       	eor	r19, r25
	eor T1, r25
    11a4:	59 27       	eor	r21, r25
	eor M3, r25
    11a6:	79 27       	eor	r23, r25
	mov r28, ST31
    11a8:	cd 2d       	mov	r28, r13
	ld  r25, Y
    11aa:	98 81       	ld	r25, Y
	eor M0, r25
    11ac:	39 27       	eor	r19, r25
	eor T0, r25 ;3, 2, 2, 1 완료
    11ae:	49 27       	eor	r20, r25

	mov r30, ST02
    11b0:	e3 2d       	mov	r30, r3
	ld  r25, Z
    11b2:	90 81       	ld	r25, Z
	eor M0, r25
    11b4:	39 27       	eor	r19, r25
	eor T0, r25
    11b6:	49 27       	eor	r20, r25
	eor M3, r25
    11b8:	79 27       	eor	r23, r25
	mov r28, ST02
    11ba:	c3 2d       	mov	r28, r3
	ld  r25, Y
    11bc:	98 81       	ld	r25, Y
	eor T0, r25
    11be:	49 27       	eor	r20, r25
	eor T1, r25;1, 3, 2, 1 완료
    11c0:	59 27       	eor	r21, r25

	mov r30, ST13
    11c2:	eb 2d       	mov	r30, r11
	ld  r25, Z
    11c4:	90 81       	ld	r25, Z
	eor M0, r25
    11c6:	39 27       	eor	r19, r25
	eor T0, r25
    11c8:	49 27       	eor	r20, r25
	eor T1, r25 
    11ca:	59 27       	eor	r21, r25
	mov r28, ST13
    11cc:	cb 2d       	mov	r28, r11
	ld  r25, Y
    11ce:	98 81       	ld	r25, Y
	eor T1, r25
    11d0:	59 27       	eor	r21, r25
	eor M3, r25 ;1, 1, 3, 2 완료
    11d2:	79 27       	eor	r23, r25

	mov ST20, M0
    11d4:	83 2e       	mov	r8, r19
	mov ST21, T0
    11d6:	94 2e       	mov	r9, r20
	mov ST22, T1
    11d8:	a5 2e       	mov	r10, r21
	mov ST13, T3
    11da:	b8 2e       	mov	r11, r24
	//! 3번째 열 완료



	//! 4번째 열 시작
	mov r30, ST30 
    11dc:	ec 2d       	mov	r30, r12
	ld  T1, Z 
    11de:	50 81       	ld	r21, Z
	mov T3, T1
    11e0:	85 2f       	mov	r24, r21
	mov r25, T3 
    11e2:	98 2f       	mov	r25, r24
	mov r28, ST30
    11e4:	cc 2d       	mov	r28, r12
	ld  T0, Y
    11e6:	48 81       	ld	r20, Y
	eor r25, T0 ; 2, 1, 1, 3 완료
    11e8:	94 27       	eor	r25, r20

	mov r30, ST01
    11ea:	e2 2d       	mov	r30, r2
	ld  M0, Z
    11ec:	30 81       	ld	r19, Z
	eor T0, M0
    11ee:	43 27       	eor	r20, r19
	eor T3, M0
    11f0:	83 27       	eor	r24, r19
	eor r25, M0 
    11f2:	93 27       	eor	r25, r19
	mov r28, ST01
    11f4:	c2 2d       	mov	r28, r2
	ld  M0, Y
    11f6:	38 81       	ld	r19, Y
	eor T0, M0
    11f8:	43 27       	eor	r20, r19
	eor T1, M0 ;3, 2, 2, 1 완료
    11fa:	53 27       	eor	r21, r19

	mov r30, ST12
    11fc:	e6 2d       	mov	r30, r6
	ld  M0, Z
    11fe:	30 81       	ld	r19, Z
	eor T0, M0
    1200:	43 27       	eor	r20, r19
	eor T1, M0
    1202:	53 27       	eor	r21, r19
	eor r25, M0 
    1204:	93 27       	eor	r25, r19
	mov r28, ST12
    1206:	c6 2d       	mov	r28, r6
	ld  M0, Y
    1208:	38 81       	ld	r19, Y
	eor T1, M0
    120a:	53 27       	eor	r21, r19
	eor T3, M0 ;1, 3, 2, 1 완료
    120c:	83 27       	eor	r24, r19

	mov r30, ST23
    120e:	e7 2d       	mov	r30, r7
	ld  M0, Z
    1210:	30 81       	ld	r19, Z
	eor T0, M0
    1212:	43 27       	eor	r20, r19
	eor T1, M0
    1214:	53 27       	eor	r21, r19
	eor T3, M0 
    1216:	83 27       	eor	r24, r19
	mov r28, ST23
    1218:	c7 2d       	mov	r28, r7
	ld  M0, Y
    121a:	38 81       	ld	r19, Y
	eor T3, M0
    121c:	83 27       	eor	r24, r19
	eor r25, M0 ;1, 1, 3, 2 완료
    121e:	93 27       	eor	r25, r19

	movw ST30, T0
    1220:	6a 01       	movw	r12, r20
	movw ST32, T3
    1222:	7c 01       	movw	r14, r24
	movw ST01, M1
    1224:	18 01       	movw	r2, r16
	movw ST12, T2
    1226:	3b 01       	movw	r6, r22
	.irp row, 0, 1, 2, 3
		.irp col, 0, 1, 2, 3
			ld r16, X+
			eor ST\row\col, r16
		.endr
	.endr
    1228:	0d 91       	ld	r16, X+
    122a:	10 26       	eor	r1, r16
    122c:	0d 91       	ld	r16, X+
    122e:	20 26       	eor	r2, r16
    1230:	0d 91       	ld	r16, X+
    1232:	30 26       	eor	r3, r16
    1234:	0d 91       	ld	r16, X+
    1236:	00 26       	eor	r0, r16
    1238:	0d 91       	ld	r16, X+
    123a:	40 26       	eor	r4, r16
    123c:	0d 91       	ld	r16, X+
    123e:	50 26       	eor	r5, r16
    1240:	0d 91       	ld	r16, X+
    1242:	60 26       	eor	r6, r16
    1244:	0d 91       	ld	r16, X+
    1246:	b0 26       	eor	r11, r16
    1248:	0d 91       	ld	r16, X+
    124a:	80 26       	eor	r8, r16
    124c:	0d 91       	ld	r16, X+
    124e:	90 26       	eor	r9, r16
    1250:	0d 91       	ld	r16, X+
    1252:	a0 26       	eor	r10, r16
    1254:	0d 91       	ld	r16, X+
    1256:	70 26       	eor	r7, r16
    1258:	0d 91       	ld	r16, X+
    125a:	c0 26       	eor	r12, r16
    125c:	0d 91       	ld	r16, X+
    125e:	d0 26       	eor	r13, r16
    1260:	0d 91       	ld	r16, X+
    1262:	e0 26       	eor	r14, r16
    1264:	0d 91       	ld	r16, X+
    1266:	f0 26       	eor	r15, r16
	//13 Round------------------------------------------------------------------------------------------
	
	/* Shift Row and Subbyte , Mixcolumns */
	//! 1번째 열 시작
	mov r30, ST00 
    1268:	e1 2d       	mov	r30, r1
	ld  M1, Z 
    126a:	00 81       	ld	r16, Z
	mov M2, M1
    126c:	10 2f       	mov	r17, r16
	mov M3, M2 
    126e:	71 2f       	mov	r23, r17
	mov r28, ST00
    1270:	c1 2d       	mov	r28, r1
	ld  M0, Y
    1272:	38 81       	ld	r19, Y
	eor M3, M0 ; 2, 1, 1, 3 완료
    1274:	73 27       	eor	r23, r19

	mov r30, ST11
    1276:	e5 2d       	mov	r30, r5
	ld  T0, Z
    1278:	40 81       	ld	r20, Z
	eor M0, T0
    127a:	34 27       	eor	r19, r20
	eor M2, T0
    127c:	14 27       	eor	r17, r20
	eor M3, T0 
    127e:	74 27       	eor	r23, r20
	mov r28, ST11
    1280:	c5 2d       	mov	r28, r5
	ld  T0, Y
    1282:	48 81       	ld	r20, Y
	eor M0, T0
    1284:	34 27       	eor	r19, r20
	eor M1, T0 ;3, 2, 2, 1 완료
    1286:	04 27       	eor	r16, r20

	mov r30, ST22
    1288:	ea 2d       	mov	r30, r10
	ld  T0, Z
    128a:	40 81       	ld	r20, Z
	eor M0, T0
    128c:	34 27       	eor	r19, r20
	eor M1, T0
    128e:	04 27       	eor	r16, r20
	eor M3, T0
    1290:	74 27       	eor	r23, r20
	mov r28, ST22
    1292:	ca 2d       	mov	r28, r10
	ld  T0, Y
    1294:	48 81       	ld	r20, Y
	eor M1, T0
    1296:	04 27       	eor	r16, r20
	eor M2, T0 ;1, 3, 2, 1 완료
    1298:	14 27       	eor	r17, r20

	mov r30, ST33
    129a:	ef 2d       	mov	r30, r15
	ld  T0, Z
    129c:	40 81       	ld	r20, Z
	eor M0, T0
    129e:	34 27       	eor	r19, r20
	eor M1, T0
    12a0:	04 27       	eor	r16, r20
	eor M2, T0 
    12a2:	14 27       	eor	r17, r20
	mov r28, ST33
    12a4:	cf 2d       	mov	r28, r15
	ld  T0, Y
    12a6:	48 81       	ld	r20, Y
	eor M2, T0
    12a8:	14 27       	eor	r17, r20
	eor M3, T0 ;1, 1, 3, 2 완료
    12aa:	74 27       	eor	r23, r20

	mov ST00, M0
    12ac:	13 2e       	mov	r1, r19
	//! 1번째 열 완료

	//! 2번째 열 시작
	mov r30, ST10 
    12ae:	e4 2d       	mov	r30, r4
	ld  T1, Z 
    12b0:	50 81       	ld	r21, Z
	mov T2, T1
    12b2:	65 2f       	mov	r22, r21
	mov T3, T2 
    12b4:	86 2f       	mov	r24, r22
	mov r28, ST10
    12b6:	c4 2d       	mov	r28, r4
	ld  T0, Y
    12b8:	48 81       	ld	r20, Y
	eor T3, T0 ; 2, 1, 1, 3 완료
    12ba:	84 27       	eor	r24, r20

	mov r30, ST21
    12bc:	e9 2d       	mov	r30, r9
	ld  M0, Z
    12be:	30 81       	ld	r19, Z
	eor T0, M0
    12c0:	43 27       	eor	r20, r19
	eor T2, M0
    12c2:	63 27       	eor	r22, r19
	eor T3, M0 
    12c4:	83 27       	eor	r24, r19
	mov r28, ST21
    12c6:	c9 2d       	mov	r28, r9
	ld  M0, Y
    12c8:	38 81       	ld	r19, Y
	eor T0, M0
    12ca:	43 27       	eor	r20, r19
	eor T1, M0 ;3, 2, 2, 1 완료
    12cc:	53 27       	eor	r21, r19

	mov r30, ST32
    12ce:	ee 2d       	mov	r30, r14
	ld  M0, Z
    12d0:	30 81       	ld	r19, Z
	eor T0, M0
    12d2:	43 27       	eor	r20, r19
	eor T1, M0
    12d4:	53 27       	eor	r21, r19
	eor T3, M0 
    12d6:	83 27       	eor	r24, r19
	mov r28, ST32
    12d8:	ce 2d       	mov	r28, r14
	ld  M0, Y
    12da:	38 81       	ld	r19, Y
	eor T1, M0
    12dc:	53 27       	eor	r21, r19
	eor T2, M0 ;1, 3, 2, 1 완료
    12de:	63 27       	eor	r22, r19

	mov r30, ST03
    12e0:	e0 2d       	mov	r30, r0
	ld  M0, Z
    12e2:	30 81       	ld	r19, Z
	eor T0, M0
    12e4:	43 27       	eor	r20, r19
	eor T1, M0
    12e6:	53 27       	eor	r21, r19
	eor T2, M0 
    12e8:	63 27       	eor	r22, r19
	mov r28, ST03
    12ea:	c0 2d       	mov	r28, r0
	ld  M0, Y
    12ec:	38 81       	ld	r19, Y
	eor T2, M0
    12ee:	63 27       	eor	r22, r19
	eor T3, M0 ;1, 1, 3, 2 완료
    12f0:	83 27       	eor	r24, r19

	movw ST10, T0
    12f2:	2a 01       	movw	r4, r20
	;mov ST11, T1
	mov ST03, M3
    12f4:	07 2e       	mov	r0, r23
	//! 2번째 열 완료

	//! 3번째 열 시작
	mov r30, ST20 
    12f6:	e8 2d       	mov	r30, r8
	ld  T0, Z 
    12f8:	40 81       	ld	r20, Z
	mov T1, T0
    12fa:	54 2f       	mov	r21, r20
	mov M3, T1 
    12fc:	75 2f       	mov	r23, r21
	mov r28, ST20
    12fe:	c8 2d       	mov	r28, r8
	ld  M0, Y
    1300:	38 81       	ld	r19, Y
	eor M3, M0 ; 2, 1, 1, 3 완료
    1302:	73 27       	eor	r23, r19

	mov r30, ST31
    1304:	ed 2d       	mov	r30, r13
	ld  r25, Z
    1306:	90 81       	ld	r25, Z
	eor M0, r25
    1308:	39 27       	eor	r19, r25
	eor T1, r25
    130a:	59 27       	eor	r21, r25
	eor M3, r25
    130c:	79 27       	eor	r23, r25
	mov r28, ST31
    130e:	cd 2d       	mov	r28, r13
	ld  r25, Y
    1310:	98 81       	ld	r25, Y
	eor M0, r25
    1312:	39 27       	eor	r19, r25
	eor T0, r25 ;3, 2, 2, 1 완료
    1314:	49 27       	eor	r20, r25

	mov r30, ST02
    1316:	e3 2d       	mov	r30, r3
	ld  r25, Z
    1318:	90 81       	ld	r25, Z
	eor M0, r25
    131a:	39 27       	eor	r19, r25
	eor T0, r25
    131c:	49 27       	eor	r20, r25
	eor M3, r25
    131e:	79 27       	eor	r23, r25
	mov r28, ST02
    1320:	c3 2d       	mov	r28, r3
	ld  r25, Y
    1322:	98 81       	ld	r25, Y
	eor T0, r25
    1324:	49 27       	eor	r20, r25
	eor T1, r25;1, 3, 2, 1 완료
    1326:	59 27       	eor	r21, r25

	mov r30, ST13
    1328:	eb 2d       	mov	r30, r11
	ld  r25, Z
    132a:	90 81       	ld	r25, Z
	eor M0, r25
    132c:	39 27       	eor	r19, r25
	eor T0, r25
    132e:	49 27       	eor	r20, r25
	eor T1, r25 
    1330:	59 27       	eor	r21, r25
	mov r28, ST13
    1332:	cb 2d       	mov	r28, r11
	ld  r25, Y
    1334:	98 81       	ld	r25, Y
	eor T1, r25
    1336:	59 27       	eor	r21, r25
	eor M3, r25 ;1, 1, 3, 2 완료
    1338:	79 27       	eor	r23, r25

	mov ST20, M0
    133a:	83 2e       	mov	r8, r19
	mov ST21, T0
    133c:	94 2e       	mov	r9, r20
	mov ST22, T1
    133e:	a5 2e       	mov	r10, r21
	mov ST13, T3
    1340:	b8 2e       	mov	r11, r24
	//! 3번째 열 완료



	//! 4번째 열 시작
	mov r30, ST30 
    1342:	ec 2d       	mov	r30, r12
	ld  T1, Z 
    1344:	50 81       	ld	r21, Z
	mov T3, T1
    1346:	85 2f       	mov	r24, r21
	mov r25, T3 
    1348:	98 2f       	mov	r25, r24
	mov r28, ST30
    134a:	cc 2d       	mov	r28, r12
	ld  T0, Y
    134c:	48 81       	ld	r20, Y
	eor r25, T0 ; 2, 1, 1, 3 완료
    134e:	94 27       	eor	r25, r20

	mov r30, ST01
    1350:	e2 2d       	mov	r30, r2
	ld  M0, Z
    1352:	30 81       	ld	r19, Z
	eor T0, M0
    1354:	43 27       	eor	r20, r19
	eor T3, M0
    1356:	83 27       	eor	r24, r19
	eor r25, M0 
    1358:	93 27       	eor	r25, r19
	mov r28, ST01
    135a:	c2 2d       	mov	r28, r2
	ld  M0, Y
    135c:	38 81       	ld	r19, Y
	eor T0, M0
    135e:	43 27       	eor	r20, r19
	eor T1, M0 ;3, 2, 2, 1 완료
    1360:	53 27       	eor	r21, r19

	mov r30, ST12
    1362:	e6 2d       	mov	r30, r6
	ld  M0, Z
    1364:	30 81       	ld	r19, Z
	eor T0, M0
    1366:	43 27       	eor	r20, r19
	eor T1, M0
    1368:	53 27       	eor	r21, r19
	eor r25, M0 
    136a:	93 27       	eor	r25, r19
	mov r28, ST12
    136c:	c6 2d       	mov	r28, r6
	ld  M0, Y
    136e:	38 81       	ld	r19, Y
	eor T1, M0
    1370:	53 27       	eor	r21, r19
	eor T3, M0 ;1, 3, 2, 1 완료
    1372:	83 27       	eor	r24, r19

	mov r30, ST23
    1374:	e7 2d       	mov	r30, r7
	ld  M0, Z
    1376:	30 81       	ld	r19, Z
	eor T0, M0
    1378:	43 27       	eor	r20, r19
	eor T1, M0
    137a:	53 27       	eor	r21, r19
	eor T3, M0 
    137c:	83 27       	eor	r24, r19
	mov r28, ST23
    137e:	c7 2d       	mov	r28, r7
	ld  M0, Y
    1380:	38 81       	ld	r19, Y
	eor T3, M0
    1382:	83 27       	eor	r24, r19
	eor r25, M0 ;1, 1, 3, 2 완료
    1384:	93 27       	eor	r25, r19

	movw ST30, T0
    1386:	6a 01       	movw	r12, r20
	movw ST32, T3
    1388:	7c 01       	movw	r14, r24
	movw ST01, M1
    138a:	18 01       	movw	r2, r16
	movw ST12, T2
    138c:	3b 01       	movw	r6, r22
	.irp row, 0, 1, 2, 3
		.irp col, 0, 1, 2, 3
			ld r16, X+
			eor ST\row\col, r16
		.endr
	.endr
    138e:	0d 91       	ld	r16, X+
    1390:	10 26       	eor	r1, r16
    1392:	0d 91       	ld	r16, X+
    1394:	20 26       	eor	r2, r16
    1396:	0d 91       	ld	r16, X+
    1398:	30 26       	eor	r3, r16
    139a:	0d 91       	ld	r16, X+
    139c:	00 26       	eor	r0, r16
    139e:	0d 91       	ld	r16, X+
    13a0:	40 26       	eor	r4, r16
    13a2:	0d 91       	ld	r16, X+
    13a4:	50 26       	eor	r5, r16
    13a6:	0d 91       	ld	r16, X+
    13a8:	60 26       	eor	r6, r16
    13aa:	0d 91       	ld	r16, X+
    13ac:	b0 26       	eor	r11, r16
    13ae:	0d 91       	ld	r16, X+
    13b0:	80 26       	eor	r8, r16
    13b2:	0d 91       	ld	r16, X+
    13b4:	90 26       	eor	r9, r16
    13b6:	0d 91       	ld	r16, X+
    13b8:	a0 26       	eor	r10, r16
    13ba:	0d 91       	ld	r16, X+
    13bc:	70 26       	eor	r7, r16
    13be:	0d 91       	ld	r16, X+
    13c0:	c0 26       	eor	r12, r16
    13c2:	0d 91       	ld	r16, X+
    13c4:	d0 26       	eor	r13, r16
    13c6:	0d 91       	ld	r16, X+
    13c8:	e0 26       	eor	r14, r16
    13ca:	0d 91       	ld	r16, X+
    13cc:	f0 26       	eor	r15, r16
	


	// 14 Round--------------------------------------------------------------------------------------------
	// Shift Row + Subbyte
	mov r30, ST00
    13ce:	e1 2d       	mov	r30, r1
	ld ST00, Z
    13d0:	10 80       	ld	r1, Z
	mov r30, ST10
    13d2:	e4 2d       	mov	r30, r4
	ld ST10, Z
    13d4:	40 80       	ld	r4, Z
	mov r30, ST20
    13d6:	e8 2d       	mov	r30, r8
	ld ST20, Z
    13d8:	80 80       	ld	r8, Z
	mov r30, ST30
    13da:	ec 2d       	mov	r30, r12
	ld ST30, Z
    13dc:	c0 80       	ld	r12, Z

	mov r30, ST01
    13de:	e2 2d       	mov	r30, r2
	ld T0, Z
    13e0:	40 81       	ld	r20, Z
	mov r30, ST11
    13e2:	e5 2d       	mov	r30, r5
	ld ST01, Z
    13e4:	20 80       	ld	r2, Z
	mov r30, ST21
    13e6:	e9 2d       	mov	r30, r9
	ld ST11, Z
    13e8:	50 80       	ld	r5, Z
	mov r30, ST31
    13ea:	ed 2d       	mov	r30, r13
	ld ST21, Z
    13ec:	90 80       	ld	r9, Z
	mov ST31, T0
    13ee:	d4 2e       	mov	r13, r20

	mov r30, ST02
    13f0:	e3 2d       	mov	r30, r3
	ld T0, Z
    13f2:	40 81       	ld	r20, Z
	mov r30, ST12
    13f4:	e6 2d       	mov	r30, r6
	ld T1, Z
    13f6:	50 81       	ld	r21, Z
	mov r30, ST22
    13f8:	ea 2d       	mov	r30, r10
	ld ST02, Z
    13fa:	30 80       	ld	r3, Z
	mov r30, ST32
    13fc:	ee 2d       	mov	r30, r14
	ld ST12, Z
    13fe:	60 80       	ld	r6, Z
	mov ST22, T0
    1400:	a4 2e       	mov	r10, r20
	mov ST32, T1
    1402:	e5 2e       	mov	r14, r21

	mov r30, ST03
    1404:	e0 2d       	mov	r30, r0
	ld T0, Z
    1406:	40 81       	ld	r20, Z
	mov r30, ST33
    1408:	ef 2d       	mov	r30, r15
	ld  ST03, Z
    140a:	00 80       	ld	r0, Z
	mov r30, ST23
    140c:	e7 2d       	mov	r30, r7
	ld ST33, Z
    140e:	f0 80       	ld	r15, Z
	mov r30, ST13
    1410:	eb 2d       	mov	r30, r11
	ld ST23, Z
    1412:	70 80       	ld	r7, Z
	mov ST13, T0
    1414:	b4 2e       	mov	r11, r20
	.irp row, 0, 1, 2, 3
		.irp col, 0, 1, 2, 3
			ld r16, X+
			eor ST\row\col, r16
		.endr
	.endr
    1416:	0d 91       	ld	r16, X+
    1418:	10 26       	eor	r1, r16
    141a:	0d 91       	ld	r16, X+
    141c:	20 26       	eor	r2, r16
    141e:	0d 91       	ld	r16, X+
    1420:	30 26       	eor	r3, r16
    1422:	0d 91       	ld	r16, X+
    1424:	00 26       	eor	r0, r16
    1426:	0d 91       	ld	r16, X+
    1428:	40 26       	eor	r4, r16
    142a:	0d 91       	ld	r16, X+
    142c:	50 26       	eor	r5, r16
    142e:	0d 91       	ld	r16, X+
    1430:	60 26       	eor	r6, r16
    1432:	0d 91       	ld	r16, X+
    1434:	b0 26       	eor	r11, r16
    1436:	0d 91       	ld	r16, X+
    1438:	80 26       	eor	r8, r16
    143a:	0d 91       	ld	r16, X+
    143c:	90 26       	eor	r9, r16
    143e:	0d 91       	ld	r16, X+
    1440:	a0 26       	eor	r10, r16
    1442:	0d 91       	ld	r16, X+
    1444:	70 26       	eor	r7, r16
    1446:	0d 91       	ld	r16, X+
    1448:	c0 26       	eor	r12, r16
    144a:	0d 91       	ld	r16, X+
    144c:	d0 26       	eor	r13, r16
    144e:	0d 91       	ld	r16, X+
    1450:	e0 26       	eor	r14, r16
    1452:	0d 91       	ld	r16, X+
    1454:	f0 26       	eor	r15, r16

	//ST
	pop r31
    1456:	ff 91       	pop	r31
	pop r30
    1458:	ef 91       	pop	r30
	.irp row, 0, 1, 2, 3
			.irp col, 0, 1, 2, 3
			st Z+, ST\row\col
		.endr
	.endr
    145a:	11 92       	st	Z+, r1
    145c:	21 92       	st	Z+, r2
    145e:	31 92       	st	Z+, r3
    1460:	01 92       	st	Z+, r0
    1462:	41 92       	st	Z+, r4
    1464:	51 92       	st	Z+, r5
    1466:	61 92       	st	Z+, r6
    1468:	b1 92       	st	Z+, r11
    146a:	81 92       	st	Z+, r8
    146c:	91 92       	st	Z+, r9
    146e:	a1 92       	st	Z+, r10
    1470:	71 92       	st	Z+, r7
    1472:	c1 92       	st	Z+, r12
    1474:	d1 92       	st	Z+, r13
    1476:	e1 92       	st	Z+, r14
    1478:	f1 92       	st	Z+, r15
	pop r29
    147a:	df 91       	pop	r29
	pop r28
    147c:	cf 91       	pop	r28
	ret
    147e:	08 95       	ret

00001480 <main>:
void aes192_enc_nobr(void *buffer, aes128_ctx_t *ctx);
void aes256_enc_nobr(void *buffer, aes128_ctx_t *ctx);


int main(void)
{
    1480:	cf 93       	push	r28
    1482:	df 93       	push	r29
    1484:	cd b7       	in	r28, 0x3d	; 61
    1486:	de b7       	in	r29, 0x3e	; 62
    1488:	c0 52       	subi	r28, 0x20	; 32
    148a:	d1 40       	sbci	r29, 0x01	; 1
    148c:	0f b6       	in	r0, 0x3f	; 63
    148e:	f8 94       	cli
    1490:	de bf       	out	0x3e, r29	; 62
    1492:	0f be       	out	0x3f, r0	; 63
    1494:	cd bf       	out	0x3d, r28	; 61
	/* Replace with your application code */

	u8 key[16] = {0, 1, 2, 3, 4, 5, 6, 7, 8, 9, 10, 11, 12, 13, 14, 15};
    1496:	20 e1       	ldi	r18, 0x10	; 16
    1498:	e0 e0       	ldi	r30, 0x00	; 0
    149a:	f4 e0       	ldi	r31, 0x04	; 4
    149c:	ce 01       	movw	r24, r28
    149e:	01 96       	adiw	r24, 0x01	; 1
    14a0:	dc 01       	movw	r26, r24
    14a2:	01 90       	ld	r0, Z+
    14a4:	0d 92       	st	X+, r0
    14a6:	2a 95       	dec	r18
    14a8:	e1 f7       	brne	.-8      	; 0x14a2 <main+0x22>
	u8 IV[16] = {0, 1, 2, 3, 4, 5, 6, 7, 8, 9, 10, 11, 12, 13};
    14aa:	20 e1       	ldi	r18, 0x10	; 16
    14ac:	ce 01       	movw	r24, r28
    14ae:	41 96       	adiw	r24, 0x11	; 17
    14b0:	fc 01       	movw	r30, r24
    14b2:	32 2f       	mov	r19, r18
    14b4:	11 92       	st	Z+, r1
    14b6:	3a 95       	dec	r19
    14b8:	e9 f7       	brne	.-6      	; 0x14b4 <main+0x34>
    14ba:	81 e0       	ldi	r24, 0x01	; 1
    14bc:	8a 8b       	std	Y+18, r24	; 0x12
    14be:	82 e0       	ldi	r24, 0x02	; 2
    14c0:	8b 8b       	std	Y+19, r24	; 0x13
    14c2:	83 e0       	ldi	r24, 0x03	; 3
    14c4:	8c 8b       	std	Y+20, r24	; 0x14
    14c6:	84 e0       	ldi	r24, 0x04	; 4
    14c8:	8d 8b       	std	Y+21, r24	; 0x15
    14ca:	85 e0       	ldi	r24, 0x05	; 5
    14cc:	8e 8b       	std	Y+22, r24	; 0x16
    14ce:	86 e0       	ldi	r24, 0x06	; 6
    14d0:	8f 8b       	std	Y+23, r24	; 0x17
    14d2:	87 e0       	ldi	r24, 0x07	; 7
    14d4:	88 8f       	std	Y+24, r24	; 0x18
    14d6:	88 e0       	ldi	r24, 0x08	; 8
    14d8:	89 8f       	std	Y+25, r24	; 0x19
    14da:	89 e0       	ldi	r24, 0x09	; 9
    14dc:	8a 8f       	std	Y+26, r24	; 0x1a
    14de:	8a e0       	ldi	r24, 0x0A	; 10
    14e0:	8b 8f       	std	Y+27, r24	; 0x1b
    14e2:	8b e0       	ldi	r24, 0x0B	; 11
    14e4:	8c 8f       	std	Y+28, r24	; 0x1c
    14e6:	8c e0       	ldi	r24, 0x0C	; 12
    14e8:	8d 8f       	std	Y+29, r24	; 0x1d
    14ea:	8d e0       	ldi	r24, 0x0D	; 13
    14ec:	8e 8f       	std	Y+30, r24	; 0x1e
	u8 IV2[16]  = {0,};
    14ee:	20 e1       	ldi	r18, 0x10	; 16
    14f0:	ce 01       	movw	r24, r28
    14f2:	81 96       	adiw	r24, 0x21	; 33
    14f4:	fc 01       	movw	r30, r24
    14f6:	32 2f       	mov	r19, r18
    14f8:	11 92       	st	Z+, r1
    14fa:	3a 95       	dec	r19
    14fc:	e9 f7       	brne	.-6      	; 0x14f8 <main+0x78>
	//aes192_enc(IV2,&aes_test);
	//aes192_enc_nobr(IV,&aes_test);
	//aes192_enc_origin(IV,&aes_test);
	
	aes256_ctx_t aes_test;
	aes256_init(key, &aes_test);
    14fe:	ce 01       	movw	r24, r28
    1500:	c1 96       	adiw	r24, 0x31	; 49
    1502:	bc 01       	movw	r22, r24
    1504:	ce 01       	movw	r24, r28
    1506:	01 96       	adiw	r24, 0x01	; 1
    1508:	0e 94 4a 00 	call	0x94	; 0x94 <aes256_init>
	//aes256_enc(IV2,&aes_test);
	aes256_enc_nobr(IV,&aes_test);
    150c:	9e 01       	movw	r18, r28
    150e:	2f 5c       	subi	r18, 0xCF	; 207
    1510:	3f 4f       	sbci	r19, 0xFF	; 255
    1512:	ce 01       	movw	r24, r28
    1514:	41 96       	adiw	r24, 0x11	; 17
    1516:	b9 01       	movw	r22, r18
    1518:	0e 94 b2 00 	call	0x164	; 0x164 <aes256_enc_nobr>
    151c:	80 e0       	ldi	r24, 0x00	; 0
    151e:	90 e0       	ldi	r25, 0x00	; 0
	//aes256_enc_origin(IV,&aes_test);

	
}
    1520:	c0 5e       	subi	r28, 0xE0	; 224
    1522:	de 4f       	sbci	r29, 0xFE	; 254
    1524:	0f b6       	in	r0, 0x3f	; 63
    1526:	f8 94       	cli
    1528:	de bf       	out	0x3e, r29	; 62
    152a:	0f be       	out	0x3f, r0	; 63
    152c:	cd bf       	out	0x3d, r28	; 61
    152e:	df 91       	pop	r29
    1530:	cf 91       	pop	r28
    1532:	08 95       	ret

00001534 <_exit>:
    1534:	f8 94       	cli

00001536 <__stop_program>:
    1536:	ff cf       	rjmp	.-2      	; 0x1536 <__stop_program>
