
GccApplication1.elf:     file format elf32-avr

Sections:
Idx Name          Size      VMA       LMA       File off  Algn
  0 .data         0000023e  00800100  00002922  00002a22  2**0
                  CONTENTS, ALLOC, LOAD, DATA
  1 .text         00002922  00000000  00000000  00000100  2**8
                  CONTENTS, ALLOC, LOAD, READONLY, CODE
  2 .bss          00000004  0080033e  0080033e  00002c60  2**0
                  ALLOC
  3 .comment      00000030  00000000  00000000  00002c60  2**0
                  CONTENTS, READONLY
  4 .note.gnu.avr.deviceinfo 00000040  00000000  00000000  00002c90  2**2
                  CONTENTS, READONLY
  5 .debug_aranges 000000e8  00000000  00000000  00002cd0  2**3
                  CONTENTS, READONLY, DEBUGGING
  6 .debug_info   000017cd  00000000  00000000  00002db8  2**0
                  CONTENTS, READONLY, DEBUGGING
  7 .debug_abbrev 00000af4  00000000  00000000  00004585  2**0
                  CONTENTS, READONLY, DEBUGGING
  8 .debug_line   00004f91  00000000  00000000  00005079  2**0
                  CONTENTS, READONLY, DEBUGGING
  9 .debug_frame  00000214  00000000  00000000  0000a00c  2**2
                  CONTENTS, READONLY, DEBUGGING
 10 .debug_str    000005cd  00000000  00000000  0000a220  2**0
                  CONTENTS, READONLY, DEBUGGING
 11 .debug_loc    00000dfb  00000000  00000000  0000a7ed  2**0
                  CONTENTS, READONLY, DEBUGGING
 12 .debug_ranges 00000068  00000000  00000000  0000b5e8  2**0
                  CONTENTS, READONLY, DEBUGGING

Disassembly of section .text:

00000000 <__vectors>:
       0:	45 c0       	rjmp	.+138    	; 0x8c <__ctors_end>
       2:	00 00       	nop
       4:	62 c0       	rjmp	.+196    	; 0xca <__bad_interrupt>
       6:	00 00       	nop
       8:	60 c0       	rjmp	.+192    	; 0xca <__bad_interrupt>
       a:	00 00       	nop
       c:	5e c0       	rjmp	.+188    	; 0xca <__bad_interrupt>
       e:	00 00       	nop
      10:	5c c0       	rjmp	.+184    	; 0xca <__bad_interrupt>
      12:	00 00       	nop
      14:	5a c0       	rjmp	.+180    	; 0xca <__bad_interrupt>
      16:	00 00       	nop
      18:	58 c0       	rjmp	.+176    	; 0xca <__bad_interrupt>
      1a:	00 00       	nop
      1c:	56 c0       	rjmp	.+172    	; 0xca <__bad_interrupt>
      1e:	00 00       	nop
      20:	54 c0       	rjmp	.+168    	; 0xca <__bad_interrupt>
      22:	00 00       	nop
      24:	52 c0       	rjmp	.+164    	; 0xca <__bad_interrupt>
      26:	00 00       	nop
      28:	50 c0       	rjmp	.+160    	; 0xca <__bad_interrupt>
      2a:	00 00       	nop
      2c:	4e c0       	rjmp	.+156    	; 0xca <__bad_interrupt>
      2e:	00 00       	nop
      30:	4c c0       	rjmp	.+152    	; 0xca <__bad_interrupt>
      32:	00 00       	nop
      34:	4a c0       	rjmp	.+148    	; 0xca <__bad_interrupt>
      36:	00 00       	nop
      38:	48 c0       	rjmp	.+144    	; 0xca <__bad_interrupt>
      3a:	00 00       	nop
      3c:	46 c0       	rjmp	.+140    	; 0xca <__bad_interrupt>
      3e:	00 00       	nop
      40:	44 c0       	rjmp	.+136    	; 0xca <__bad_interrupt>
      42:	00 00       	nop
      44:	42 c0       	rjmp	.+132    	; 0xca <__bad_interrupt>
      46:	00 00       	nop
      48:	40 c0       	rjmp	.+128    	; 0xca <__bad_interrupt>
      4a:	00 00       	nop
      4c:	3e c0       	rjmp	.+124    	; 0xca <__bad_interrupt>
      4e:	00 00       	nop
      50:	3c c0       	rjmp	.+120    	; 0xca <__bad_interrupt>
      52:	00 00       	nop
      54:	3a c0       	rjmp	.+116    	; 0xca <__bad_interrupt>
      56:	00 00       	nop
      58:	38 c0       	rjmp	.+112    	; 0xca <__bad_interrupt>
      5a:	00 00       	nop
      5c:	36 c0       	rjmp	.+108    	; 0xca <__bad_interrupt>
      5e:	00 00       	nop
      60:	34 c0       	rjmp	.+104    	; 0xca <__bad_interrupt>
      62:	00 00       	nop
      64:	32 c0       	rjmp	.+100    	; 0xca <__bad_interrupt>
      66:	00 00       	nop
      68:	30 c0       	rjmp	.+96     	; 0xca <__bad_interrupt>
      6a:	00 00       	nop
      6c:	2e c0       	rjmp	.+92     	; 0xca <__bad_interrupt>
      6e:	00 00       	nop
      70:	2c c0       	rjmp	.+88     	; 0xca <__bad_interrupt>
      72:	00 00       	nop
      74:	2a c0       	rjmp	.+84     	; 0xca <__bad_interrupt>
      76:	00 00       	nop
      78:	28 c0       	rjmp	.+80     	; 0xca <__bad_interrupt>
      7a:	00 00       	nop
      7c:	26 c0       	rjmp	.+76     	; 0xca <__bad_interrupt>
      7e:	00 00       	nop
      80:	24 c0       	rjmp	.+72     	; 0xca <__bad_interrupt>
      82:	00 00       	nop
      84:	22 c0       	rjmp	.+68     	; 0xca <__bad_interrupt>
      86:	00 00       	nop
      88:	20 c0       	rjmp	.+64     	; 0xca <__bad_interrupt>
	...

0000008c <__ctors_end>:
      8c:	11 24       	eor	r1, r1
      8e:	1f be       	out	0x3f, r1	; 63
      90:	cf ef       	ldi	r28, 0xFF	; 255
      92:	d0 e4       	ldi	r29, 0x40	; 64
      94:	de bf       	out	0x3e, r29	; 62
      96:	cd bf       	out	0x3d, r28	; 61

00000098 <__do_copy_data>:
      98:	13 e0       	ldi	r17, 0x03	; 3
      9a:	a0 e0       	ldi	r26, 0x00	; 0
      9c:	b1 e0       	ldi	r27, 0x01	; 1
      9e:	e2 e2       	ldi	r30, 0x22	; 34
      a0:	f9 e2       	ldi	r31, 0x29	; 41
      a2:	00 e0       	ldi	r16, 0x00	; 0
      a4:	0b bf       	out	0x3b, r16	; 59
      a6:	02 c0       	rjmp	.+4      	; 0xac <__do_copy_data+0x14>
      a8:	07 90       	elpm	r0, Z+
      aa:	0d 92       	st	X+, r0
      ac:	ae 33       	cpi	r26, 0x3E	; 62
      ae:	b1 07       	cpc	r27, r17
      b0:	d9 f7       	brne	.-10     	; 0xa8 <__do_copy_data+0x10>

000000b2 <__do_clear_bss>:
      b2:	23 e0       	ldi	r18, 0x03	; 3
      b4:	ae e3       	ldi	r26, 0x3E	; 62
      b6:	b3 e0       	ldi	r27, 0x03	; 3
      b8:	01 c0       	rjmp	.+2      	; 0xbc <.do_clear_bss_start>

000000ba <.do_clear_bss_loop>:
      ba:	1d 92       	st	X+, r1

000000bc <.do_clear_bss_start>:
      bc:	a2 34       	cpi	r26, 0x42	; 66
      be:	b2 07       	cpc	r27, r18
      c0:	e1 f7       	brne	.-8      	; 0xba <.do_clear_bss_loop>
      c2:	0e 94 d8 12 	call	0x25b0	; 0x25b0 <main>
      c6:	0c 94 8f 14 	jmp	0x291e	; 0x291e <_exit>

000000ca <__bad_interrupt>:
      ca:	9a cf       	rjmp	.-204    	; 0x0 <__vectors>

000000cc <aes256_enc_CBC_asm>:
P = 0
xREDUCER = 25

.global aes256_enc_CBC_asm
aes256_enc_CBC_asm:
	ldi r20, 14
      cc:	4e e0       	ldi	r20, 0x0E	; 14
	rjmp aes_encrypt_core
      ce:	03 c0       	rjmp	.+6      	; 0xd6 <aes_encrypt_core>

000000d0 <aes192_enc_CBC_asm>:

.global aes192_enc_CBC_asm
aes192_enc_CBC_asm:
	ldi r20, 12
      d0:	4c e0       	ldi	r20, 0x0C	; 12
	rjmp aes_encrypt_core
      d2:	01 c0       	rjmp	.+2      	; 0xd6 <aes_encrypt_core>

000000d4 <aes128_enc_CBC_asm>:

.global aes128_enc_CBC_asm
aes128_enc_CBC_asm:
	ldi r20, 10
      d4:	4a e0       	ldi	r20, 0x0A	; 10

000000d6 <aes_encrypt_core>:
 * param ks:     r22:r23
 * param rounds: r20   
 */
.global aes_encrypt_core
aes_encrypt_core:
	push_range 2, 17
      d6:	2f 92       	push	r2
      d8:	3f 92       	push	r3
      da:	4f 92       	push	r4
      dc:	5f 92       	push	r5
      de:	6f 92       	push	r6
      e0:	7f 92       	push	r7
      e2:	8f 92       	push	r8
      e4:	9f 92       	push	r9
      e6:	af 92       	push	r10
      e8:	bf 92       	push	r11
      ea:	cf 92       	push	r12
      ec:	df 92       	push	r13
      ee:	ef 92       	push	r14
      f0:	ff 92       	push	r15
      f2:	0f 93       	push	r16
      f4:	1f 93       	push	r17
	push r28
      f6:	cf 93       	push	r28
	push r29
      f8:	df 93       	push	r29
	push r24
      fa:	8f 93       	push	r24
	push r25
      fc:	9f 93       	push	r25
	movw r26, r22
      fe:	db 01       	movw	r26, r22
	movw r30, r24
     100:	fc 01       	movw	r30, r24
	mov  CTR, r20
     102:	84 2f       	mov	r24, r20
	clt
     104:	e8 94       	clt
	
	.irp row, 0, 1, 2, 3
		.irp col, 0, 1, 2, 3
			ld ST\row\col, Z+
		.endr
	.endr
     106:	81 90       	ld	r8, Z+
     108:	91 90       	ld	r9, Z+
     10a:	a1 90       	ld	r10, Z+
     10c:	b1 90       	ld	r11, Z+
     10e:	c1 90       	ld	r12, Z+
     110:	d1 90       	ld	r13, Z+
     112:	e1 90       	ld	r14, Z+
     114:	f1 90       	ld	r15, Z+
     116:	01 91       	ld	r16, Z+
     118:	11 91       	ld	r17, Z+
     11a:	21 91       	ld	r18, Z+
     11c:	31 91       	ld	r19, Z+
     11e:	41 91       	ld	r20, Z+
     120:	51 91       	ld	r21, Z+
     122:	61 91       	ld	r22, Z+
     124:	71 91       	ld	r23, Z+
	
	ldi xREDUCER, 0x1b /* load reducer */
     126:	9b e1       	ldi	r25, 0x1B	; 27
	ldi r31, hi8(aes_sbox)
     128:	f0 e2       	ldi	r31, 0x20	; 32
	.irp row, 0, 1, 2, 3
		.irp col, 0, 1, 2, 3
			ld r0, X+
			eor ST\row\col, r0
		.endr
	.endr
     12a:	0d 90       	ld	r0, X+
     12c:	80 24       	eor	r8, r0
     12e:	0d 90       	ld	r0, X+
     130:	90 24       	eor	r9, r0
     132:	0d 90       	ld	r0, X+
     134:	a0 24       	eor	r10, r0
     136:	0d 90       	ld	r0, X+
     138:	b0 24       	eor	r11, r0
     13a:	0d 90       	ld	r0, X+
     13c:	c0 24       	eor	r12, r0
     13e:	0d 90       	ld	r0, X+
     140:	d0 24       	eor	r13, r0
     142:	0d 90       	ld	r0, X+
     144:	e0 24       	eor	r14, r0
     146:	0d 90       	ld	r0, X+
     148:	f0 24       	eor	r15, r0
     14a:	0d 90       	ld	r0, X+
     14c:	00 25       	eor	r16, r0
     14e:	0d 90       	ld	r0, X+
     150:	10 25       	eor	r17, r0
     152:	0d 90       	ld	r0, X+
     154:	20 25       	eor	r18, r0
     156:	0d 90       	ld	r0, X+
     158:	30 25       	eor	r19, r0
     15a:	0d 90       	ld	r0, X+
     15c:	40 25       	eor	r20, r0
     15e:	0d 90       	ld	r0, X+
     160:	50 25       	eor	r21, r0
     162:	0d 90       	ld	r0, X+
     164:	60 25       	eor	r22, r0
     166:	0d 90       	ld	r0, X+
     168:	70 25       	eor	r23, r0
	
	brtc 2f
     16a:	2e f5       	brtc	.+74     	; 0x1b6 <exit+0x4a>

0000016c <exit>:
exit:
	pop r31
     16c:	ff 91       	pop	r31
	pop r30
     16e:	ef 91       	pop	r30
	.irp row, 0, 1, 2, 3
			.irp col, 0, 1, 2, 3
			st Z+, ST\row\col
		.endr
	.endr
     170:	81 92       	st	Z+, r8
     172:	91 92       	st	Z+, r9
     174:	a1 92       	st	Z+, r10
     176:	b1 92       	st	Z+, r11
     178:	c1 92       	st	Z+, r12
     17a:	d1 92       	st	Z+, r13
     17c:	e1 92       	st	Z+, r14
     17e:	f1 92       	st	Z+, r15
     180:	01 93       	st	Z+, r16
     182:	11 93       	st	Z+, r17
     184:	21 93       	st	Z+, r18
     186:	31 93       	st	Z+, r19
     188:	41 93       	st	Z+, r20
     18a:	51 93       	st	Z+, r21
     18c:	61 93       	st	Z+, r22
     18e:	71 93       	st	Z+, r23
	pop r29
     190:	df 91       	pop	r29
	pop r28
     192:	cf 91       	pop	r28
	pop_range 2, 17
     194:	1f 91       	pop	r17
     196:	0f 91       	pop	r16
     198:	ff 90       	pop	r15
     19a:	ef 90       	pop	r14
     19c:	df 90       	pop	r13
     19e:	cf 90       	pop	r12
     1a0:	bf 90       	pop	r11
     1a2:	af 90       	pop	r10
     1a4:	9f 90       	pop	r9
     1a6:	8f 90       	pop	r8
     1a8:	7f 90       	pop	r7
     1aa:	6f 90       	pop	r6
     1ac:	5f 90       	pop	r5
     1ae:	4f 90       	pop	r4
     1b0:	3f 90       	pop	r3
     1b2:	2f 90       	pop	r2
	ret
     1b4:	08 95       	ret

2:	dec CTR
     1b6:	8a 95       	dec	r24
	brne 3f
     1b8:	09 f4       	brne	.+2      	; 0x1bc <exit+0x50>
	set
     1ba:	68 94       	set
3:

	/* encryption loop */ 

	/* SBOX substitution and shifting */
	mov r30, ST00
     1bc:	e8 2d       	mov	r30, r8
	lpm ST00, Z
     1be:	84 90       	lpm	r8, Z
	mov r30, ST10
     1c0:	ec 2d       	mov	r30, r12
	lpm ST10, Z
     1c2:	c4 90       	lpm	r12, Z
	mov r30, ST20
     1c4:	e0 2f       	mov	r30, r16
	lpm ST20, Z
     1c6:	04 91       	lpm	r16, Z
	mov r30, ST30
     1c8:	e4 2f       	mov	r30, r20
	lpm ST30, Z
     1ca:	44 91       	lpm	r20, Z

	mov r30, ST01
     1cc:	e9 2d       	mov	r30, r9
	lpm T0, Z
     1ce:	24 90       	lpm	r2, Z
	mov r30, ST11
     1d0:	ed 2d       	mov	r30, r13
	lpm ST01, Z
     1d2:	94 90       	lpm	r9, Z
	mov r30, ST21
     1d4:	e1 2f       	mov	r30, r17
	lpm ST11, Z
     1d6:	d4 90       	lpm	r13, Z
	mov r30, ST31
     1d8:	e5 2f       	mov	r30, r21
	lpm ST21, Z
     1da:	14 91       	lpm	r17, Z
	mov ST31, T0
     1dc:	52 2d       	mov	r21, r2

	mov r30, ST02
     1de:	ea 2d       	mov	r30, r10
	lpm T0, Z
     1e0:	24 90       	lpm	r2, Z
	mov r30, ST12
     1e2:	ee 2d       	mov	r30, r14
	lpm T1, Z
     1e4:	34 90       	lpm	r3, Z
	mov r30, ST22
     1e6:	e2 2f       	mov	r30, r18
	lpm ST02, Z
     1e8:	a4 90       	lpm	r10, Z
	mov r30, ST32
     1ea:	e6 2f       	mov	r30, r22
	lpm ST12, Z
     1ec:	e4 90       	lpm	r14, Z
	mov ST22, T0
     1ee:	22 2d       	mov	r18, r2
	mov ST32, T1
     1f0:	63 2d       	mov	r22, r3

	mov r30, ST03
     1f2:	eb 2d       	mov	r30, r11
	lpm T0, Z
     1f4:	24 90       	lpm	r2, Z
	mov r30, ST33
     1f6:	e7 2f       	mov	r30, r23
	lpm ST03, Z
     1f8:	b4 90       	lpm	r11, Z
	mov r30, ST23
     1fa:	e3 2f       	mov	r30, r19
	lpm ST33, Z
     1fc:	74 91       	lpm	r23, Z
	mov r30, ST13
     1fe:	ef 2d       	mov	r30, r15
	lpm ST23, Z
     200:	34 91       	lpm	r19, Z
	mov ST13, T0
     202:	f2 2c       	mov	r15, r2
		
	/* mixcols (or rows in our case) */
	brtc 2f
     204:	0e f4       	brtc	.+2      	; 0x208 <exit+0x9c>
	rjmp 1b
     206:	91 cf       	rjmp	.-222    	; 0x12a <aes_encrypt_core+0x54>
	brcc 3f
	eor T0, xREDUCER
3:	eor T0, r0
	eor ST\row\()3, T0

.endr
     208:	0a 2c       	mov	r0, r10
     20a:	0b 24       	eor	r0, r11
     20c:	40 2c       	mov	r4, r0
     20e:	28 2c       	mov	r2, r8
     210:	89 24       	eor	r8, r9
     212:	08 24       	eor	r0, r8
     214:	88 0c       	add	r8, r8
     216:	08 f4       	brcc	.+2      	; 0x21a <exit+0xae>
     218:	89 26       	eor	r8, r25
     21a:	80 24       	eor	r8, r0
     21c:	82 24       	eor	r8, r2
     21e:	39 2c       	mov	r3, r9
     220:	3a 24       	eor	r3, r10
     222:	33 0c       	add	r3, r3
     224:	08 f4       	brcc	.+2      	; 0x228 <exit+0xbc>
     226:	39 26       	eor	r3, r25
     228:	30 24       	eor	r3, r0
     22a:	93 24       	eor	r9, r3
     22c:	44 0c       	add	r4, r4
     22e:	08 f4       	brcc	.+2      	; 0x232 <exit+0xc6>
     230:	49 26       	eor	r4, r25
     232:	40 24       	eor	r4, r0
     234:	a4 24       	eor	r10, r4
     236:	2b 24       	eor	r2, r11
     238:	22 0c       	add	r2, r2
     23a:	08 f4       	brcc	.+2      	; 0x23e <exit+0xd2>
     23c:	29 26       	eor	r2, r25
     23e:	20 24       	eor	r2, r0
     240:	b2 24       	eor	r11, r2
     242:	0e 2c       	mov	r0, r14
     244:	0f 24       	eor	r0, r15
     246:	40 2c       	mov	r4, r0
     248:	2c 2c       	mov	r2, r12
     24a:	cd 24       	eor	r12, r13
     24c:	0c 24       	eor	r0, r12
     24e:	cc 0c       	add	r12, r12
     250:	08 f4       	brcc	.+2      	; 0x254 <exit+0xe8>
     252:	c9 26       	eor	r12, r25
     254:	c0 24       	eor	r12, r0
     256:	c2 24       	eor	r12, r2
     258:	3d 2c       	mov	r3, r13
     25a:	3e 24       	eor	r3, r14
     25c:	33 0c       	add	r3, r3
     25e:	08 f4       	brcc	.+2      	; 0x262 <exit+0xf6>
     260:	39 26       	eor	r3, r25
     262:	30 24       	eor	r3, r0
     264:	d3 24       	eor	r13, r3
     266:	44 0c       	add	r4, r4
     268:	08 f4       	brcc	.+2      	; 0x26c <exit+0x100>
     26a:	49 26       	eor	r4, r25
     26c:	40 24       	eor	r4, r0
     26e:	e4 24       	eor	r14, r4
     270:	2f 24       	eor	r2, r15
     272:	22 0c       	add	r2, r2
     274:	08 f4       	brcc	.+2      	; 0x278 <exit+0x10c>
     276:	29 26       	eor	r2, r25
     278:	20 24       	eor	r2, r0
     27a:	f2 24       	eor	r15, r2
     27c:	02 2e       	mov	r0, r18
     27e:	03 26       	eor	r0, r19
     280:	40 2c       	mov	r4, r0
     282:	20 2e       	mov	r2, r16
     284:	01 27       	eor	r16, r17
     286:	00 26       	eor	r0, r16
     288:	00 0f       	add	r16, r16
     28a:	08 f4       	brcc	.+2      	; 0x28e <exit+0x122>
     28c:	09 27       	eor	r16, r25
     28e:	00 25       	eor	r16, r0
     290:	02 25       	eor	r16, r2
     292:	31 2e       	mov	r3, r17
     294:	32 26       	eor	r3, r18
     296:	33 0c       	add	r3, r3
     298:	08 f4       	brcc	.+2      	; 0x29c <exit+0x130>
     29a:	39 26       	eor	r3, r25
     29c:	30 24       	eor	r3, r0
     29e:	13 25       	eor	r17, r3
     2a0:	44 0c       	add	r4, r4
     2a2:	08 f4       	brcc	.+2      	; 0x2a6 <exit+0x13a>
     2a4:	49 26       	eor	r4, r25
     2a6:	40 24       	eor	r4, r0
     2a8:	24 25       	eor	r18, r4
     2aa:	23 26       	eor	r2, r19
     2ac:	22 0c       	add	r2, r2
     2ae:	08 f4       	brcc	.+2      	; 0x2b2 <exit+0x146>
     2b0:	29 26       	eor	r2, r25
     2b2:	20 24       	eor	r2, r0
     2b4:	32 25       	eor	r19, r2
     2b6:	06 2e       	mov	r0, r22
     2b8:	07 26       	eor	r0, r23
     2ba:	40 2c       	mov	r4, r0
     2bc:	24 2e       	mov	r2, r20
     2be:	45 27       	eor	r20, r21
     2c0:	04 26       	eor	r0, r20
     2c2:	44 0f       	add	r20, r20
     2c4:	08 f4       	brcc	.+2      	; 0x2c8 <exit+0x15c>
     2c6:	49 27       	eor	r20, r25
     2c8:	40 25       	eor	r20, r0
     2ca:	42 25       	eor	r20, r2
     2cc:	35 2e       	mov	r3, r21
     2ce:	36 26       	eor	r3, r22
     2d0:	33 0c       	add	r3, r3
     2d2:	08 f4       	brcc	.+2      	; 0x2d6 <exit+0x16a>
     2d4:	39 26       	eor	r3, r25
     2d6:	30 24       	eor	r3, r0
     2d8:	53 25       	eor	r21, r3
     2da:	44 0c       	add	r4, r4
     2dc:	08 f4       	brcc	.+2      	; 0x2e0 <exit+0x174>
     2de:	49 26       	eor	r4, r25
     2e0:	40 24       	eor	r4, r0
     2e2:	64 25       	eor	r22, r4
     2e4:	27 26       	eor	r2, r23
     2e6:	22 0c       	add	r2, r2
     2e8:	08 f4       	brcc	.+2      	; 0x2ec <exit+0x180>
     2ea:	29 26       	eor	r2, r25
     2ec:	20 24       	eor	r2, r0
     2ee:	72 25       	eor	r23, r2
	/* mix colums (rows) done */

	/* add key*/
     2f0:	1c cf       	rjmp	.-456    	; 0x12a <aes_encrypt_core+0x54>

000002f2 <aes128_enc_CTR_asm>:
/*
 * param state:  r24:r25
 * param ks:     r22:r23
 * param rounds: r20   
 */
	push_range 2, 25
     2f2:	2f 92       	push	r2
     2f4:	3f 92       	push	r3
     2f6:	4f 92       	push	r4
     2f8:	5f 92       	push	r5
     2fa:	6f 92       	push	r6
     2fc:	7f 92       	push	r7
     2fe:	8f 92       	push	r8
     300:	9f 92       	push	r9
     302:	af 92       	push	r10
     304:	bf 92       	push	r11
     306:	cf 92       	push	r12
     308:	df 92       	push	r13
     30a:	ef 92       	push	r14
     30c:	ff 92       	push	r15
     30e:	0f 93       	push	r16
     310:	1f 93       	push	r17
     312:	2f 93       	push	r18
     314:	3f 93       	push	r19
     316:	4f 93       	push	r20
     318:	5f 93       	push	r21
     31a:	6f 93       	push	r22
     31c:	7f 93       	push	r23
     31e:	8f 93       	push	r24
     320:	9f 93       	push	r25
	push r28
     322:	cf 93       	push	r28
	push r29
     324:	df 93       	push	r29
	push r24
     326:	8f 93       	push	r24
	push r25
     328:	9f 93       	push	r25
	movw r26, r22
     32a:	db 01       	movw	r26, r22
	movw r30, r24
     32c:	fc 01       	movw	r30, r24
	//State Set
	.irp row, 0, 1, 2, 3
		.irp col, 0, 1, 2, 3
			ld ST\row\col, Z+
		.endr
	.endr
     32e:	01 90       	ld	r0, Z+
     330:	11 90       	ld	r1, Z+
     332:	21 90       	ld	r2, Z+
     334:	31 90       	ld	r3, Z+
     336:	41 90       	ld	r4, Z+
     338:	51 90       	ld	r5, Z+
     33a:	61 90       	ld	r6, Z+
     33c:	71 90       	ld	r7, Z+
     33e:	81 90       	ld	r8, Z+
     340:	91 90       	ld	r9, Z+
     342:	a1 90       	ld	r10, Z+
     344:	b1 90       	ld	r11, Z+
     346:	c1 90       	ld	r12, Z+
     348:	d1 90       	ld	r13, Z+
     34a:	e1 90       	ld	r14, Z+
     34c:	f1 90       	ld	r15, Z+
	push r26
     34e:	af 93       	push	r26
	push r27
     350:	bf 93       	push	r27
	push r20
     352:	4f 93       	push	r20
	push r21
     354:	5f 93       	push	r21
	ldi r31, hi8(SBOX_TABLE)	
     356:	f1 e0       	ldi	r31, 0x01	; 1
	ldi r29, hi8(MIX2_TABLE)
     358:	d2 e0       	ldi	r29, 0x02	; 2
	.irp row, 0, 1, 2, 3
		.irp col, 0, 1, 2, 3
			ld r16, X+
			eor ST\row\col, r16
		.endr
	.endr
     35a:	0d 91       	ld	r16, X+
     35c:	00 26       	eor	r0, r16
     35e:	0d 91       	ld	r16, X+
     360:	10 26       	eor	r1, r16
     362:	0d 91       	ld	r16, X+
     364:	20 26       	eor	r2, r16
     366:	0d 91       	ld	r16, X+
     368:	30 26       	eor	r3, r16
     36a:	0d 91       	ld	r16, X+
     36c:	40 26       	eor	r4, r16
     36e:	0d 91       	ld	r16, X+
     370:	50 26       	eor	r5, r16
     372:	0d 91       	ld	r16, X+
     374:	60 26       	eor	r6, r16
     376:	0d 91       	ld	r16, X+
     378:	70 26       	eor	r7, r16
     37a:	0d 91       	ld	r16, X+
     37c:	80 26       	eor	r8, r16
     37e:	0d 91       	ld	r16, X+
     380:	90 26       	eor	r9, r16
     382:	0d 91       	ld	r16, X+
     384:	a0 26       	eor	r10, r16
     386:	0d 91       	ld	r16, X+
     388:	b0 26       	eor	r11, r16
     38a:	0d 91       	ld	r16, X+
     38c:	c0 26       	eor	r12, r16
     38e:	0d 91       	ld	r16, X+
     390:	d0 26       	eor	r13, r16
     392:	0d 91       	ld	r16, X+
     394:	e0 26       	eor	r14, r16
     396:	0d 91       	ld	r16, X+
     398:	f0 26       	eor	r15, r16

	//1 Round------------------------------------------------------------------------------------------
	
	/* Shift Row and Subbyte , Mixcolumns */
	//! 1번째 열 시작
	Inc ST33
     39a:	f3 94       	inc	r15
	mov r30, ST00 
     39c:	e0 2d       	mov	r30, r0
	ld  M1, Z 
     39e:	10 81       	ld	r17, Z
	mov M2, M1
     3a0:	21 2f       	mov	r18, r17
	mov M3, M2 
     3a2:	32 2f       	mov	r19, r18
	mov r28, ST00
     3a4:	c0 2d       	mov	r28, r0
	ld  M0, Y
     3a6:	08 81       	ld	r16, Y
	eor M3, M0 ; 2, 1, 1, 3 완료
     3a8:	30 27       	eor	r19, r16

	mov r30, ST11
     3aa:	e5 2d       	mov	r30, r5
	ld  T0, Z
     3ac:	40 81       	ld	r20, Z
	eor M0, T0
     3ae:	04 27       	eor	r16, r20
	eor M2, T0
     3b0:	24 27       	eor	r18, r20
	eor M3, T0 
     3b2:	34 27       	eor	r19, r20
	mov r28, ST11
     3b4:	c5 2d       	mov	r28, r5
	ld  T0, Y
     3b6:	48 81       	ld	r20, Y
	eor M0, T0
     3b8:	04 27       	eor	r16, r20
	eor M1, T0 ;3, 2, 2, 1 완료
     3ba:	14 27       	eor	r17, r20

	mov r30, ST22
     3bc:	ea 2d       	mov	r30, r10
	ld  T0, Z
     3be:	40 81       	ld	r20, Z
	eor M0, T0
     3c0:	04 27       	eor	r16, r20
	eor M1, T0
     3c2:	14 27       	eor	r17, r20
	eor M3, T0
     3c4:	34 27       	eor	r19, r20
	mov r28, ST22
     3c6:	ca 2d       	mov	r28, r10
	ld  T0, Y
     3c8:	48 81       	ld	r20, Y
	eor M1, T0
     3ca:	14 27       	eor	r17, r20
	eor M2, T0 ;1, 3, 2, 1 완료
     3cc:	24 27       	eor	r18, r20

	mov r30, ST33
     3ce:	ef 2d       	mov	r30, r15
	ld  T0, Z
     3d0:	40 81       	ld	r20, Z
	eor M0, T0
     3d2:	04 27       	eor	r16, r20
	eor M1, T0
     3d4:	14 27       	eor	r17, r20
	eor M2, T0 
     3d6:	24 27       	eor	r18, r20
	mov r28, ST33
     3d8:	cf 2d       	mov	r28, r15
	ld  T0, Y
     3da:	48 81       	ld	r20, Y
	eor M2, T0
     3dc:	24 27       	eor	r18, r20
	eor M3, T0 ;1, 1, 3, 2 완료
     3de:	34 27       	eor	r19, r20

	mov ST00, M0
     3e0:	00 2e       	mov	r0, r16
	//! 1번째 열 완료

	//! 2번째 열 시작
	mov r30, ST10 
     3e2:	e4 2d       	mov	r30, r4
	ld  T1, Z 
     3e4:	50 81       	ld	r21, Z
	mov T2, T1
     3e6:	65 2f       	mov	r22, r21
	mov T3, T2 
     3e8:	76 2f       	mov	r23, r22
	mov r28, ST10
     3ea:	c4 2d       	mov	r28, r4
	ld  T0, Y
     3ec:	48 81       	ld	r20, Y
	eor T3, T0 ; 2, 1, 1, 3 완료
     3ee:	74 27       	eor	r23, r20

	mov r30, ST21
     3f0:	e9 2d       	mov	r30, r9
	ld  M0, Z
     3f2:	00 81       	ld	r16, Z
	eor T0, M0
     3f4:	40 27       	eor	r20, r16
	eor T2, M0
     3f6:	60 27       	eor	r22, r16
	eor T3, M0 
     3f8:	70 27       	eor	r23, r16
	mov r28, ST21
     3fa:	c9 2d       	mov	r28, r9
	ld  M0, Y
     3fc:	08 81       	ld	r16, Y
	eor T0, M0
     3fe:	40 27       	eor	r20, r16
	eor T1, M0 ;3, 2, 2, 1 완료
     400:	50 27       	eor	r21, r16

	mov r30, ST32
     402:	ee 2d       	mov	r30, r14
	ld  M0, Z
     404:	00 81       	ld	r16, Z
	eor T0, M0
     406:	40 27       	eor	r20, r16
	eor T1, M0
     408:	50 27       	eor	r21, r16
	eor T3, M0 
     40a:	70 27       	eor	r23, r16
	mov r28, ST32
     40c:	ce 2d       	mov	r28, r14
	ld  M0, Y
     40e:	08 81       	ld	r16, Y
	eor T1, M0
     410:	50 27       	eor	r21, r16
	eor T2, M0 ;1, 3, 2, 1 완료
     412:	60 27       	eor	r22, r16

	mov r30, ST03
     414:	e3 2d       	mov	r30, r3
	ld  M0, Z
     416:	00 81       	ld	r16, Z
	eor T0, M0
     418:	40 27       	eor	r20, r16
	eor T1, M0
     41a:	50 27       	eor	r21, r16
	eor T2, M0 
     41c:	60 27       	eor	r22, r16
	mov r28, ST03
     41e:	c3 2d       	mov	r28, r3
	ld  M0, Y
     420:	08 81       	ld	r16, Y
	eor T2, M0
     422:	60 27       	eor	r22, r16
	eor T3, M0 ;1, 1, 3, 2 완료
     424:	70 27       	eor	r23, r16

	mov ST10, T0
     426:	44 2e       	mov	r4, r20
	mov ST11, T1
     428:	55 2e       	mov	r5, r21
	mov ST03, M3
     42a:	33 2e       	mov	r3, r19
	//! 2번째 열 완료

	//! 3번째 열 시작
	mov r30, ST20 
     42c:	e8 2d       	mov	r30, r8
	ld  T0, Z 
     42e:	40 81       	ld	r20, Z
	mov T1, T0
     430:	54 2f       	mov	r21, r20
	mov M3, T1 
     432:	35 2f       	mov	r19, r21
	mov r28, ST20
     434:	c8 2d       	mov	r28, r8
	ld  M0, Y
     436:	08 81       	ld	r16, Y
	eor M3, M0 ; 2, 1, 1, 3 완료
     438:	30 27       	eor	r19, r16

	mov r30, ST31
     43a:	ed 2d       	mov	r30, r13
	ld  r25, Z
     43c:	90 81       	ld	r25, Z
	eor M0, r25
     43e:	09 27       	eor	r16, r25
	eor T1, r25
     440:	59 27       	eor	r21, r25
	eor M3, r25
     442:	39 27       	eor	r19, r25
	mov r28, ST31
     444:	cd 2d       	mov	r28, r13
	ld  r25, Y
     446:	98 81       	ld	r25, Y
	eor M0, r25
     448:	09 27       	eor	r16, r25
	eor T0, r25 ;3, 2, 2, 1 완료
     44a:	49 27       	eor	r20, r25

	mov r30, ST02
     44c:	e2 2d       	mov	r30, r2
	ld  r25, Z
     44e:	90 81       	ld	r25, Z
	eor M0, r25
     450:	09 27       	eor	r16, r25
	eor T0, r25
     452:	49 27       	eor	r20, r25
	eor M3, r25
     454:	39 27       	eor	r19, r25
	mov r28, ST02
     456:	c2 2d       	mov	r28, r2
	ld  r25, Y
     458:	98 81       	ld	r25, Y
	eor T0, r25
     45a:	49 27       	eor	r20, r25
	eor T1, r25;1, 3, 2, 1 완료
     45c:	59 27       	eor	r21, r25

	mov r30, ST13
     45e:	e7 2d       	mov	r30, r7
	ld  r25, Z
     460:	90 81       	ld	r25, Z
	eor M0, r25
     462:	09 27       	eor	r16, r25
	eor T0, r25
     464:	49 27       	eor	r20, r25
	eor T1, r25 
     466:	59 27       	eor	r21, r25
	mov r28, ST13
     468:	c7 2d       	mov	r28, r7
	ld  r25, Y
     46a:	98 81       	ld	r25, Y
	eor T1, r25
     46c:	59 27       	eor	r21, r25
	eor M3, r25 ;1, 1, 3, 2 완료
     46e:	39 27       	eor	r19, r25

	mov ST20, M0
     470:	80 2e       	mov	r8, r16
	mov ST21, T0
     472:	94 2e       	mov	r9, r20
	mov ST22, T1
     474:	a5 2e       	mov	r10, r21
	mov ST13, T3
     476:	77 2e       	mov	r7, r23
	//! 3번째 열 완료



	//! 4번째 열 시작
	mov r30, ST30 
     478:	ec 2d       	mov	r30, r12
	ld  T1, Z 
     47a:	50 81       	ld	r21, Z
	mov T3, T1
     47c:	75 2f       	mov	r23, r21
	mov r25, T3 
     47e:	97 2f       	mov	r25, r23
	mov r28, ST30
     480:	cc 2d       	mov	r28, r12
	ld  T0, Y
     482:	48 81       	ld	r20, Y
	eor r25, T0 ; 2, 1, 1, 3 완료
     484:	94 27       	eor	r25, r20

	mov r30, ST01
     486:	e1 2d       	mov	r30, r1
	ld  M0, Z
     488:	00 81       	ld	r16, Z
	eor T0, M0
     48a:	40 27       	eor	r20, r16
	eor T3, M0
     48c:	70 27       	eor	r23, r16
	eor r25, M0 
     48e:	90 27       	eor	r25, r16
	mov r28, ST01
     490:	c1 2d       	mov	r28, r1
	ld  M0, Y
     492:	08 81       	ld	r16, Y
	eor T0, M0
     494:	40 27       	eor	r20, r16
	eor T1, M0 ;3, 2, 2, 1 완료
     496:	50 27       	eor	r21, r16

	mov r30, ST12
     498:	e6 2d       	mov	r30, r6
	ld  M0, Z
     49a:	00 81       	ld	r16, Z
	eor T0, M0
     49c:	40 27       	eor	r20, r16
	eor T1, M0
     49e:	50 27       	eor	r21, r16
	eor r25, M0 
     4a0:	90 27       	eor	r25, r16
	mov r28, ST12
     4a2:	c6 2d       	mov	r28, r6
	ld  M0, Y
     4a4:	08 81       	ld	r16, Y
	eor T1, M0
     4a6:	50 27       	eor	r21, r16
	eor T3, M0 ;1, 3, 2, 1 완료
     4a8:	70 27       	eor	r23, r16

	mov r30, ST23
     4aa:	eb 2d       	mov	r30, r11
	ld  M0, Z
     4ac:	00 81       	ld	r16, Z
	eor T0, M0
     4ae:	40 27       	eor	r20, r16
	eor T1, M0
     4b0:	50 27       	eor	r21, r16
	eor T3, M0 
     4b2:	70 27       	eor	r23, r16
	mov r28, ST23
     4b4:	cb 2d       	mov	r28, r11
	ld  M0, Y
     4b6:	08 81       	ld	r16, Y
	eor T3, M0
     4b8:	70 27       	eor	r23, r16
	eor r25, M0 ;1, 1, 3, 2 완료
     4ba:	90 27       	eor	r25, r16

	mov ST30, T0
     4bc:	c4 2e       	mov	r12, r20
	mov ST31, T1
     4be:	d5 2e       	mov	r13, r21
	mov ST32, T3
     4c0:	e7 2e       	mov	r14, r23
	mov ST33, r25
     4c2:	f9 2e       	mov	r15, r25
	mov ST01, M1
     4c4:	11 2e       	mov	r1, r17
	mov ST02, M2
     4c6:	22 2e       	mov	r2, r18
	mov ST12, T2
     4c8:	66 2e       	mov	r6, r22
	mov ST23, M3
     4ca:	b3 2e       	mov	r11, r19
	.irp row, 0, 1, 2, 3
		.irp col, 0, 1, 2, 3
			ld r16, X+
			eor ST\row\col, r16
		.endr
	.endr
     4cc:	0d 91       	ld	r16, X+
     4ce:	00 26       	eor	r0, r16
     4d0:	0d 91       	ld	r16, X+
     4d2:	10 26       	eor	r1, r16
     4d4:	0d 91       	ld	r16, X+
     4d6:	20 26       	eor	r2, r16
     4d8:	0d 91       	ld	r16, X+
     4da:	30 26       	eor	r3, r16
     4dc:	0d 91       	ld	r16, X+
     4de:	40 26       	eor	r4, r16
     4e0:	0d 91       	ld	r16, X+
     4e2:	50 26       	eor	r5, r16
     4e4:	0d 91       	ld	r16, X+
     4e6:	60 26       	eor	r6, r16
     4e8:	0d 91       	ld	r16, X+
     4ea:	70 26       	eor	r7, r16
     4ec:	0d 91       	ld	r16, X+
     4ee:	80 26       	eor	r8, r16
     4f0:	0d 91       	ld	r16, X+
     4f2:	90 26       	eor	r9, r16
     4f4:	0d 91       	ld	r16, X+
     4f6:	a0 26       	eor	r10, r16
     4f8:	0d 91       	ld	r16, X+
     4fa:	b0 26       	eor	r11, r16
     4fc:	0d 91       	ld	r16, X+
     4fe:	c0 26       	eor	r12, r16
     500:	0d 91       	ld	r16, X+
     502:	d0 26       	eor	r13, r16
     504:	0d 91       	ld	r16, X+
     506:	e0 26       	eor	r14, r16
     508:	0d 91       	ld	r16, X+
     50a:	f0 26       	eor	r15, r16
	
	pop r21
     50c:	5f 91       	pop	r21
	pop r20
     50e:	4f 91       	pop	r20
	movw r30, r20
     510:	fa 01       	movw	r30, r20
	push r20
     512:	4f 93       	push	r20
	push r21
     514:	5f 93       	push	r21
	st Z+, ST10
     516:	41 92       	st	Z+, r4
	st Z+, ST11
     518:	51 92       	st	Z+, r5
	st Z+, ST12
     51a:	61 92       	st	Z+, r6
	st Z+, ST13
     51c:	71 92       	st	Z+, r7
	st Z+, ST20
     51e:	81 92       	st	Z+, r8
	st Z+, ST21
     520:	91 92       	st	Z+, r9
	st Z+, ST22
     522:	a1 92       	st	Z+, r10
	st Z+, ST23
     524:	b1 92       	st	Z+, r11
	st Z+, ST30
     526:	c1 92       	st	Z+, r12
	st Z+, ST31
     528:	d1 92       	st	Z+, r13
	st Z+, ST32
     52a:	e1 92       	st	Z+, r14
	st Z+, ST33
     52c:	f1 92       	st	Z+, r15
	
	//2 Round------------------------------------------------------------------------------------------
	
	/* Shift Row and Subbyte , Mixcolumns */
	//! 1번째 열 시작
	mov r30, ST00 
     52e:	e0 2d       	mov	r30, r0
	ld  M1, Z 
     530:	10 81       	ld	r17, Z
	mov M2, M1
     532:	21 2f       	mov	r18, r17
	mov M3, M2 
     534:	32 2f       	mov	r19, r18
	mov r28, ST00
     536:	c0 2d       	mov	r28, r0
	ld  M0, Y
     538:	08 81       	ld	r16, Y
	eor M3, M0 ; 2, 1, 1, 3 완료
     53a:	30 27       	eor	r19, r16

	mov r30, ST11
     53c:	e5 2d       	mov	r30, r5
	ld  T0, Z
     53e:	40 81       	ld	r20, Z
	eor M0, T0
     540:	04 27       	eor	r16, r20
	eor M2, T0
     542:	24 27       	eor	r18, r20
	eor M3, T0 
     544:	34 27       	eor	r19, r20
	mov r28, ST11
     546:	c5 2d       	mov	r28, r5
	ld  T0, Y
     548:	48 81       	ld	r20, Y
	eor M0, T0
     54a:	04 27       	eor	r16, r20
	eor M1, T0 ;3, 2, 2, 1 완료
     54c:	14 27       	eor	r17, r20

	mov r30, ST22
     54e:	ea 2d       	mov	r30, r10
	ld  T0, Z
     550:	40 81       	ld	r20, Z
	eor M0, T0
     552:	04 27       	eor	r16, r20
	eor M1, T0
     554:	14 27       	eor	r17, r20
	eor M3, T0
     556:	34 27       	eor	r19, r20
	mov r28, ST22
     558:	ca 2d       	mov	r28, r10
	ld  T0, Y
     55a:	48 81       	ld	r20, Y
	eor M1, T0
     55c:	14 27       	eor	r17, r20
	eor M2, T0 ;1, 3, 2, 1 완료
     55e:	24 27       	eor	r18, r20

	mov r30, ST33
     560:	ef 2d       	mov	r30, r15
	ld  T0, Z
     562:	40 81       	ld	r20, Z
	eor M0, T0
     564:	04 27       	eor	r16, r20
	eor M1, T0
     566:	14 27       	eor	r17, r20
	eor M2, T0 
     568:	24 27       	eor	r18, r20
	mov r28, ST33
     56a:	cf 2d       	mov	r28, r15
	ld  T0, Y
     56c:	48 81       	ld	r20, Y
	eor M2, T0
     56e:	24 27       	eor	r18, r20
	eor M3, T0 ;1, 1, 3, 2 완료
     570:	34 27       	eor	r19, r20

	mov ST00, M0
     572:	00 2e       	mov	r0, r16
	//! 1번째 열 완료

	//! 2번째 열 시작
	mov r30, ST10 
     574:	e4 2d       	mov	r30, r4
	ld  T1, Z 
     576:	50 81       	ld	r21, Z
	mov T2, T1
     578:	65 2f       	mov	r22, r21
	mov T3, T2 
     57a:	76 2f       	mov	r23, r22
	mov r28, ST10
     57c:	c4 2d       	mov	r28, r4
	ld  T0, Y
     57e:	48 81       	ld	r20, Y
	eor T3, T0 ; 2, 1, 1, 3 완료
     580:	74 27       	eor	r23, r20

	mov r30, ST21
     582:	e9 2d       	mov	r30, r9
	ld  M0, Z
     584:	00 81       	ld	r16, Z
	eor T0, M0
     586:	40 27       	eor	r20, r16
	eor T2, M0
     588:	60 27       	eor	r22, r16
	eor T3, M0 
     58a:	70 27       	eor	r23, r16
	mov r28, ST21
     58c:	c9 2d       	mov	r28, r9
	ld  M0, Y
     58e:	08 81       	ld	r16, Y
	eor T0, M0
     590:	40 27       	eor	r20, r16
	eor T1, M0 ;3, 2, 2, 1 완료
     592:	50 27       	eor	r21, r16

	mov r30, ST32
     594:	ee 2d       	mov	r30, r14
	ld  M0, Z
     596:	00 81       	ld	r16, Z
	eor T0, M0
     598:	40 27       	eor	r20, r16
	eor T1, M0
     59a:	50 27       	eor	r21, r16
	eor T3, M0 
     59c:	70 27       	eor	r23, r16
	mov r28, ST32
     59e:	ce 2d       	mov	r28, r14
	ld  M0, Y
     5a0:	08 81       	ld	r16, Y
	eor T1, M0
     5a2:	50 27       	eor	r21, r16
	eor T2, M0 ;1, 3, 2, 1 완료
     5a4:	60 27       	eor	r22, r16

	mov r30, ST03
     5a6:	e3 2d       	mov	r30, r3
	ld  M0, Z
     5a8:	00 81       	ld	r16, Z
	eor T0, M0
     5aa:	40 27       	eor	r20, r16
	eor T1, M0
     5ac:	50 27       	eor	r21, r16
	eor T2, M0 
     5ae:	60 27       	eor	r22, r16
	mov r28, ST03
     5b0:	c3 2d       	mov	r28, r3
	ld  M0, Y
     5b2:	08 81       	ld	r16, Y
	eor T2, M0
     5b4:	60 27       	eor	r22, r16
	eor T3, M0 ;1, 1, 3, 2 완료
     5b6:	70 27       	eor	r23, r16

	mov ST10, T0
     5b8:	44 2e       	mov	r4, r20
	mov ST11, T1
     5ba:	55 2e       	mov	r5, r21
	mov ST03, M3
     5bc:	33 2e       	mov	r3, r19
	//! 2번째 열 완료

	//! 3번째 열 시작
	mov r30, ST20 
     5be:	e8 2d       	mov	r30, r8
	ld  T0, Z 
     5c0:	40 81       	ld	r20, Z
	mov T1, T0
     5c2:	54 2f       	mov	r21, r20
	mov M3, T1 
     5c4:	35 2f       	mov	r19, r21
	mov r28, ST20
     5c6:	c8 2d       	mov	r28, r8
	ld  M0, Y
     5c8:	08 81       	ld	r16, Y
	eor M3, M0 ; 2, 1, 1, 3 완료
     5ca:	30 27       	eor	r19, r16

	mov r30, ST31
     5cc:	ed 2d       	mov	r30, r13
	ld  r25, Z
     5ce:	90 81       	ld	r25, Z
	eor M0, r25
     5d0:	09 27       	eor	r16, r25
	eor T1, r25
     5d2:	59 27       	eor	r21, r25
	eor M3, r25
     5d4:	39 27       	eor	r19, r25
	mov r28, ST31
     5d6:	cd 2d       	mov	r28, r13
	ld  r25, Y
     5d8:	98 81       	ld	r25, Y
	eor M0, r25
     5da:	09 27       	eor	r16, r25
	eor T0, r25 ;3, 2, 2, 1 완료
     5dc:	49 27       	eor	r20, r25

	mov r30, ST02
     5de:	e2 2d       	mov	r30, r2
	ld  r25, Z
     5e0:	90 81       	ld	r25, Z
	eor M0, r25
     5e2:	09 27       	eor	r16, r25
	eor T0, r25
     5e4:	49 27       	eor	r20, r25
	eor M3, r25
     5e6:	39 27       	eor	r19, r25
	mov r28, ST02
     5e8:	c2 2d       	mov	r28, r2
	ld  r25, Y
     5ea:	98 81       	ld	r25, Y
	eor T0, r25
     5ec:	49 27       	eor	r20, r25
	eor T1, r25;1, 3, 2, 1 완료
     5ee:	59 27       	eor	r21, r25

	mov r30, ST13
     5f0:	e7 2d       	mov	r30, r7
	ld  r25, Z
     5f2:	90 81       	ld	r25, Z
	eor M0, r25
     5f4:	09 27       	eor	r16, r25
	eor T0, r25
     5f6:	49 27       	eor	r20, r25
	eor T1, r25 
     5f8:	59 27       	eor	r21, r25
	mov r28, ST13
     5fa:	c7 2d       	mov	r28, r7
	ld  r25, Y
     5fc:	98 81       	ld	r25, Y
	eor T1, r25
     5fe:	59 27       	eor	r21, r25
	eor M3, r25 ;1, 1, 3, 2 완료
     600:	39 27       	eor	r19, r25

	mov ST20, M0
     602:	80 2e       	mov	r8, r16
	mov ST21, T0
     604:	94 2e       	mov	r9, r20
	mov ST22, T1
     606:	a5 2e       	mov	r10, r21
	mov ST13, T3
     608:	77 2e       	mov	r7, r23
	//! 3번째 열 완료



	//! 4번째 열 시작
	mov r30, ST30 
     60a:	ec 2d       	mov	r30, r12
	ld  T1, Z 
     60c:	50 81       	ld	r21, Z
	mov T3, T1
     60e:	75 2f       	mov	r23, r21
	mov r25, T3 
     610:	97 2f       	mov	r25, r23
	mov r28, ST30
     612:	cc 2d       	mov	r28, r12
	ld  T0, Y
     614:	48 81       	ld	r20, Y
	eor r25, T0 ; 2, 1, 1, 3 완료
     616:	94 27       	eor	r25, r20

	mov r30, ST01
     618:	e1 2d       	mov	r30, r1
	ld  M0, Z
     61a:	00 81       	ld	r16, Z
	eor T0, M0
     61c:	40 27       	eor	r20, r16
	eor T3, M0
     61e:	70 27       	eor	r23, r16
	eor r25, M0 
     620:	90 27       	eor	r25, r16
	mov r28, ST01
     622:	c1 2d       	mov	r28, r1
	ld  M0, Y
     624:	08 81       	ld	r16, Y
	eor T0, M0
     626:	40 27       	eor	r20, r16
	eor T1, M0 ;3, 2, 2, 1 완료
     628:	50 27       	eor	r21, r16

	mov r30, ST12
     62a:	e6 2d       	mov	r30, r6
	ld  M0, Z
     62c:	00 81       	ld	r16, Z
	eor T0, M0
     62e:	40 27       	eor	r20, r16
	eor T1, M0
     630:	50 27       	eor	r21, r16
	eor r25, M0 
     632:	90 27       	eor	r25, r16
	mov r28, ST12
     634:	c6 2d       	mov	r28, r6
	ld  M0, Y
     636:	08 81       	ld	r16, Y
	eor T1, M0
     638:	50 27       	eor	r21, r16
	eor T3, M0 ;1, 3, 2, 1 완료
     63a:	70 27       	eor	r23, r16

	mov r30, ST23
     63c:	eb 2d       	mov	r30, r11
	ld  M0, Z
     63e:	00 81       	ld	r16, Z
	eor T0, M0
     640:	40 27       	eor	r20, r16
	eor T1, M0
     642:	50 27       	eor	r21, r16
	eor T3, M0 
     644:	70 27       	eor	r23, r16
	mov r28, ST23
     646:	cb 2d       	mov	r28, r11
	ld  M0, Y
     648:	08 81       	ld	r16, Y
	eor T3, M0
     64a:	70 27       	eor	r23, r16
	eor r25, M0 ;1, 1, 3, 2 완료
     64c:	90 27       	eor	r25, r16

	mov ST30, T0
     64e:	c4 2e       	mov	r12, r20
	mov ST31, T1
     650:	d5 2e       	mov	r13, r21
	mov ST32, T3
     652:	e7 2e       	mov	r14, r23
	mov ST33, r25
     654:	f9 2e       	mov	r15, r25
	mov ST01, M1
     656:	11 2e       	mov	r1, r17
	mov ST02, M2
     658:	22 2e       	mov	r2, r18
	mov ST12, T2
     65a:	66 2e       	mov	r6, r22
	mov ST23, M3
     65c:	b3 2e       	mov	r11, r19
	.irp row, 0, 1, 2, 3
		.irp col, 0, 1, 2, 3
			ld r16, X+
			eor ST\row\col, r16
		.endr
	.endr
     65e:	0d 91       	ld	r16, X+
     660:	00 26       	eor	r0, r16
     662:	0d 91       	ld	r16, X+
     664:	10 26       	eor	r1, r16
     666:	0d 91       	ld	r16, X+
     668:	20 26       	eor	r2, r16
     66a:	0d 91       	ld	r16, X+
     66c:	30 26       	eor	r3, r16
     66e:	0d 91       	ld	r16, X+
     670:	40 26       	eor	r4, r16
     672:	0d 91       	ld	r16, X+
     674:	50 26       	eor	r5, r16
     676:	0d 91       	ld	r16, X+
     678:	60 26       	eor	r6, r16
     67a:	0d 91       	ld	r16, X+
     67c:	70 26       	eor	r7, r16
     67e:	0d 91       	ld	r16, X+
     680:	80 26       	eor	r8, r16
     682:	0d 91       	ld	r16, X+
     684:	90 26       	eor	r9, r16
     686:	0d 91       	ld	r16, X+
     688:	a0 26       	eor	r10, r16
     68a:	0d 91       	ld	r16, X+
     68c:	b0 26       	eor	r11, r16
     68e:	0d 91       	ld	r16, X+
     690:	c0 26       	eor	r12, r16
     692:	0d 91       	ld	r16, X+
     694:	d0 26       	eor	r13, r16
     696:	0d 91       	ld	r16, X+
     698:	e0 26       	eor	r14, r16
     69a:	0d 91       	ld	r16, X+
     69c:	f0 26       	eor	r15, r16
	
	//3 Round------------------------------------------------------------------------------------------
	
	/* Shift Row and Subbyte , Mixcolumns */
	//! 1번째 열 시작
	mov r30, ST00 
     69e:	e0 2d       	mov	r30, r0
	ld  M1, Z 
     6a0:	10 81       	ld	r17, Z
	mov M2, M1
     6a2:	21 2f       	mov	r18, r17
	mov M3, M2 
     6a4:	32 2f       	mov	r19, r18
	mov r28, ST00
     6a6:	c0 2d       	mov	r28, r0
	ld  M0, Y
     6a8:	08 81       	ld	r16, Y
	eor M3, M0 ; 2, 1, 1, 3 완료
     6aa:	30 27       	eor	r19, r16

	mov r30, ST11
     6ac:	e5 2d       	mov	r30, r5
	ld  T0, Z
     6ae:	40 81       	ld	r20, Z
	eor M0, T0
     6b0:	04 27       	eor	r16, r20
	eor M2, T0
     6b2:	24 27       	eor	r18, r20
	eor M3, T0 
     6b4:	34 27       	eor	r19, r20
	mov r28, ST11
     6b6:	c5 2d       	mov	r28, r5
	ld  T0, Y
     6b8:	48 81       	ld	r20, Y
	eor M0, T0
     6ba:	04 27       	eor	r16, r20
	eor M1, T0 ;3, 2, 2, 1 완료
     6bc:	14 27       	eor	r17, r20

	mov r30, ST22
     6be:	ea 2d       	mov	r30, r10
	ld  T0, Z
     6c0:	40 81       	ld	r20, Z
	eor M0, T0
     6c2:	04 27       	eor	r16, r20
	eor M1, T0
     6c4:	14 27       	eor	r17, r20
	eor M3, T0
     6c6:	34 27       	eor	r19, r20
	mov r28, ST22
     6c8:	ca 2d       	mov	r28, r10
	ld  T0, Y
     6ca:	48 81       	ld	r20, Y
	eor M1, T0
     6cc:	14 27       	eor	r17, r20
	eor M2, T0 ;1, 3, 2, 1 완료
     6ce:	24 27       	eor	r18, r20

	mov r30, ST33
     6d0:	ef 2d       	mov	r30, r15
	ld  T0, Z
     6d2:	40 81       	ld	r20, Z
	eor M0, T0
     6d4:	04 27       	eor	r16, r20
	eor M1, T0
     6d6:	14 27       	eor	r17, r20
	eor M2, T0 
     6d8:	24 27       	eor	r18, r20
	mov r28, ST33
     6da:	cf 2d       	mov	r28, r15
	ld  T0, Y
     6dc:	48 81       	ld	r20, Y
	eor M2, T0
     6de:	24 27       	eor	r18, r20
	eor M3, T0 ;1, 1, 3, 2 완료
     6e0:	34 27       	eor	r19, r20

	mov ST00, M0
     6e2:	00 2e       	mov	r0, r16
	//! 1번째 열 완료

	//! 2번째 열 시작
	mov r30, ST10 
     6e4:	e4 2d       	mov	r30, r4
	ld  T1, Z 
     6e6:	50 81       	ld	r21, Z
	mov T2, T1
     6e8:	65 2f       	mov	r22, r21
	mov T3, T2 
     6ea:	76 2f       	mov	r23, r22
	mov r28, ST10
     6ec:	c4 2d       	mov	r28, r4
	ld  T0, Y
     6ee:	48 81       	ld	r20, Y
	eor T3, T0 ; 2, 1, 1, 3 완료
     6f0:	74 27       	eor	r23, r20

	mov r30, ST21
     6f2:	e9 2d       	mov	r30, r9
	ld  M0, Z
     6f4:	00 81       	ld	r16, Z
	eor T0, M0
     6f6:	40 27       	eor	r20, r16
	eor T2, M0
     6f8:	60 27       	eor	r22, r16
	eor T3, M0 
     6fa:	70 27       	eor	r23, r16
	mov r28, ST21
     6fc:	c9 2d       	mov	r28, r9
	ld  M0, Y
     6fe:	08 81       	ld	r16, Y
	eor T0, M0
     700:	40 27       	eor	r20, r16
	eor T1, M0 ;3, 2, 2, 1 완료
     702:	50 27       	eor	r21, r16

	mov r30, ST32
     704:	ee 2d       	mov	r30, r14
	ld  M0, Z
     706:	00 81       	ld	r16, Z
	eor T0, M0
     708:	40 27       	eor	r20, r16
	eor T1, M0
     70a:	50 27       	eor	r21, r16
	eor T3, M0 
     70c:	70 27       	eor	r23, r16
	mov r28, ST32
     70e:	ce 2d       	mov	r28, r14
	ld  M0, Y
     710:	08 81       	ld	r16, Y
	eor T1, M0
     712:	50 27       	eor	r21, r16
	eor T2, M0 ;1, 3, 2, 1 완료
     714:	60 27       	eor	r22, r16

	mov r30, ST03
     716:	e3 2d       	mov	r30, r3
	ld  M0, Z
     718:	00 81       	ld	r16, Z
	eor T0, M0
     71a:	40 27       	eor	r20, r16
	eor T1, M0
     71c:	50 27       	eor	r21, r16
	eor T2, M0 
     71e:	60 27       	eor	r22, r16
	mov r28, ST03
     720:	c3 2d       	mov	r28, r3
	ld  M0, Y
     722:	08 81       	ld	r16, Y
	eor T2, M0
     724:	60 27       	eor	r22, r16
	eor T3, M0 ;1, 1, 3, 2 완료
     726:	70 27       	eor	r23, r16

	mov ST10, T0
     728:	44 2e       	mov	r4, r20
	mov ST11, T1
     72a:	55 2e       	mov	r5, r21
	mov ST03, M3
     72c:	33 2e       	mov	r3, r19
	//! 2번째 열 완료

	//! 3번째 열 시작
	mov r30, ST20 
     72e:	e8 2d       	mov	r30, r8
	ld  T0, Z 
     730:	40 81       	ld	r20, Z
	mov T1, T0
     732:	54 2f       	mov	r21, r20
	mov M3, T1 
     734:	35 2f       	mov	r19, r21
	mov r28, ST20
     736:	c8 2d       	mov	r28, r8
	ld  M0, Y
     738:	08 81       	ld	r16, Y
	eor M3, M0 ; 2, 1, 1, 3 완료
     73a:	30 27       	eor	r19, r16

	mov r30, ST31
     73c:	ed 2d       	mov	r30, r13
	ld  r25, Z
     73e:	90 81       	ld	r25, Z
	eor M0, r25
     740:	09 27       	eor	r16, r25
	eor T1, r25
     742:	59 27       	eor	r21, r25
	eor M3, r25
     744:	39 27       	eor	r19, r25
	mov r28, ST31
     746:	cd 2d       	mov	r28, r13
	ld  r25, Y
     748:	98 81       	ld	r25, Y
	eor M0, r25
     74a:	09 27       	eor	r16, r25
	eor T0, r25 ;3, 2, 2, 1 완료
     74c:	49 27       	eor	r20, r25

	mov r30, ST02
     74e:	e2 2d       	mov	r30, r2
	ld  r25, Z
     750:	90 81       	ld	r25, Z
	eor M0, r25
     752:	09 27       	eor	r16, r25
	eor T0, r25
     754:	49 27       	eor	r20, r25
	eor M3, r25
     756:	39 27       	eor	r19, r25
	mov r28, ST02
     758:	c2 2d       	mov	r28, r2
	ld  r25, Y
     75a:	98 81       	ld	r25, Y
	eor T0, r25
     75c:	49 27       	eor	r20, r25
	eor T1, r25;1, 3, 2, 1 완료
     75e:	59 27       	eor	r21, r25

	mov r30, ST13
     760:	e7 2d       	mov	r30, r7
	ld  r25, Z
     762:	90 81       	ld	r25, Z
	eor M0, r25
     764:	09 27       	eor	r16, r25
	eor T0, r25
     766:	49 27       	eor	r20, r25
	eor T1, r25 
     768:	59 27       	eor	r21, r25
	mov r28, ST13
     76a:	c7 2d       	mov	r28, r7
	ld  r25, Y
     76c:	98 81       	ld	r25, Y
	eor T1, r25
     76e:	59 27       	eor	r21, r25
	eor M3, r25 ;1, 1, 3, 2 완료
     770:	39 27       	eor	r19, r25

	mov ST20, M0
     772:	80 2e       	mov	r8, r16
	mov ST21, T0
     774:	94 2e       	mov	r9, r20
	mov ST22, T1
     776:	a5 2e       	mov	r10, r21
	mov ST13, T3
     778:	77 2e       	mov	r7, r23
	//! 3번째 열 완료



	//! 4번째 열 시작
	mov r30, ST30 
     77a:	ec 2d       	mov	r30, r12
	ld  T1, Z 
     77c:	50 81       	ld	r21, Z
	mov T3, T1
     77e:	75 2f       	mov	r23, r21
	mov r25, T3 
     780:	97 2f       	mov	r25, r23
	mov r28, ST30
     782:	cc 2d       	mov	r28, r12
	ld  T0, Y
     784:	48 81       	ld	r20, Y
	eor r25, T0 ; 2, 1, 1, 3 완료
     786:	94 27       	eor	r25, r20

	mov r30, ST01
     788:	e1 2d       	mov	r30, r1
	ld  M0, Z
     78a:	00 81       	ld	r16, Z
	eor T0, M0
     78c:	40 27       	eor	r20, r16
	eor T3, M0
     78e:	70 27       	eor	r23, r16
	eor r25, M0 
     790:	90 27       	eor	r25, r16
	mov r28, ST01
     792:	c1 2d       	mov	r28, r1
	ld  M0, Y
     794:	08 81       	ld	r16, Y
	eor T0, M0
     796:	40 27       	eor	r20, r16
	eor T1, M0 ;3, 2, 2, 1 완료
     798:	50 27       	eor	r21, r16

	mov r30, ST12
     79a:	e6 2d       	mov	r30, r6
	ld  M0, Z
     79c:	00 81       	ld	r16, Z
	eor T0, M0
     79e:	40 27       	eor	r20, r16
	eor T1, M0
     7a0:	50 27       	eor	r21, r16
	eor r25, M0 
     7a2:	90 27       	eor	r25, r16
	mov r28, ST12
     7a4:	c6 2d       	mov	r28, r6
	ld  M0, Y
     7a6:	08 81       	ld	r16, Y
	eor T1, M0
     7a8:	50 27       	eor	r21, r16
	eor T3, M0 ;1, 3, 2, 1 완료
     7aa:	70 27       	eor	r23, r16

	mov r30, ST23
     7ac:	eb 2d       	mov	r30, r11
	ld  M0, Z
     7ae:	00 81       	ld	r16, Z
	eor T0, M0
     7b0:	40 27       	eor	r20, r16
	eor T1, M0
     7b2:	50 27       	eor	r21, r16
	eor T3, M0 
     7b4:	70 27       	eor	r23, r16
	mov r28, ST23
     7b6:	cb 2d       	mov	r28, r11
	ld  M0, Y
     7b8:	08 81       	ld	r16, Y
	eor T3, M0
     7ba:	70 27       	eor	r23, r16
	eor r25, M0 ;1, 1, 3, 2 완료
     7bc:	90 27       	eor	r25, r16

	mov ST30, T0
     7be:	c4 2e       	mov	r12, r20
	mov ST31, T1
     7c0:	d5 2e       	mov	r13, r21
	mov ST32, T3
     7c2:	e7 2e       	mov	r14, r23
	mov ST33, r25
     7c4:	f9 2e       	mov	r15, r25
	mov ST01, M1
     7c6:	11 2e       	mov	r1, r17
	mov ST02, M2
     7c8:	22 2e       	mov	r2, r18
	mov ST12, T2
     7ca:	66 2e       	mov	r6, r22
	mov ST23, M3
     7cc:	b3 2e       	mov	r11, r19
	.irp row, 0, 1, 2, 3
		.irp col, 0, 1, 2, 3
			ld r16, X+
			eor ST\row\col, r16
		.endr
	.endr
     7ce:	0d 91       	ld	r16, X+
     7d0:	00 26       	eor	r0, r16
     7d2:	0d 91       	ld	r16, X+
     7d4:	10 26       	eor	r1, r16
     7d6:	0d 91       	ld	r16, X+
     7d8:	20 26       	eor	r2, r16
     7da:	0d 91       	ld	r16, X+
     7dc:	30 26       	eor	r3, r16
     7de:	0d 91       	ld	r16, X+
     7e0:	40 26       	eor	r4, r16
     7e2:	0d 91       	ld	r16, X+
     7e4:	50 26       	eor	r5, r16
     7e6:	0d 91       	ld	r16, X+
     7e8:	60 26       	eor	r6, r16
     7ea:	0d 91       	ld	r16, X+
     7ec:	70 26       	eor	r7, r16
     7ee:	0d 91       	ld	r16, X+
     7f0:	80 26       	eor	r8, r16
     7f2:	0d 91       	ld	r16, X+
     7f4:	90 26       	eor	r9, r16
     7f6:	0d 91       	ld	r16, X+
     7f8:	a0 26       	eor	r10, r16
     7fa:	0d 91       	ld	r16, X+
     7fc:	b0 26       	eor	r11, r16
     7fe:	0d 91       	ld	r16, X+
     800:	c0 26       	eor	r12, r16
     802:	0d 91       	ld	r16, X+
     804:	d0 26       	eor	r13, r16
     806:	0d 91       	ld	r16, X+
     808:	e0 26       	eor	r14, r16
     80a:	0d 91       	ld	r16, X+
     80c:	f0 26       	eor	r15, r16
	
	//4 Round------------------------------------------------------------------------------------------
	
	/* Shift Row and Subbyte , Mixcolumns */
	//! 1번째 열 시작
	mov r30, ST00 
     80e:	e0 2d       	mov	r30, r0
	ld  M1, Z 
     810:	10 81       	ld	r17, Z
	mov M2, M1
     812:	21 2f       	mov	r18, r17
	mov M3, M2 
     814:	32 2f       	mov	r19, r18
	mov r28, ST00
     816:	c0 2d       	mov	r28, r0
	ld  M0, Y
     818:	08 81       	ld	r16, Y
	eor M3, M0 ; 2, 1, 1, 3 완료
     81a:	30 27       	eor	r19, r16

	mov r30, ST11
     81c:	e5 2d       	mov	r30, r5
	ld  T0, Z
     81e:	40 81       	ld	r20, Z
	eor M0, T0
     820:	04 27       	eor	r16, r20
	eor M2, T0
     822:	24 27       	eor	r18, r20
	eor M3, T0 
     824:	34 27       	eor	r19, r20
	mov r28, ST11
     826:	c5 2d       	mov	r28, r5
	ld  T0, Y
     828:	48 81       	ld	r20, Y
	eor M0, T0
     82a:	04 27       	eor	r16, r20
	eor M1, T0 ;3, 2, 2, 1 완료
     82c:	14 27       	eor	r17, r20

	mov r30, ST22
     82e:	ea 2d       	mov	r30, r10
	ld  T0, Z
     830:	40 81       	ld	r20, Z
	eor M0, T0
     832:	04 27       	eor	r16, r20
	eor M1, T0
     834:	14 27       	eor	r17, r20
	eor M3, T0
     836:	34 27       	eor	r19, r20
	mov r28, ST22
     838:	ca 2d       	mov	r28, r10
	ld  T0, Y
     83a:	48 81       	ld	r20, Y
	eor M1, T0
     83c:	14 27       	eor	r17, r20
	eor M2, T0 ;1, 3, 2, 1 완료
     83e:	24 27       	eor	r18, r20

	mov r30, ST33
     840:	ef 2d       	mov	r30, r15
	ld  T0, Z
     842:	40 81       	ld	r20, Z
	eor M0, T0
     844:	04 27       	eor	r16, r20
	eor M1, T0
     846:	14 27       	eor	r17, r20
	eor M2, T0 
     848:	24 27       	eor	r18, r20
	mov r28, ST33
     84a:	cf 2d       	mov	r28, r15
	ld  T0, Y
     84c:	48 81       	ld	r20, Y
	eor M2, T0
     84e:	24 27       	eor	r18, r20
	eor M3, T0 ;1, 1, 3, 2 완료
     850:	34 27       	eor	r19, r20

	mov ST00, M0
     852:	00 2e       	mov	r0, r16
	//! 1번째 열 완료

	//! 2번째 열 시작
	mov r30, ST10 
     854:	e4 2d       	mov	r30, r4
	ld  T1, Z 
     856:	50 81       	ld	r21, Z
	mov T2, T1
     858:	65 2f       	mov	r22, r21
	mov T3, T2 
     85a:	76 2f       	mov	r23, r22
	mov r28, ST10
     85c:	c4 2d       	mov	r28, r4
	ld  T0, Y
     85e:	48 81       	ld	r20, Y
	eor T3, T0 ; 2, 1, 1, 3 완료
     860:	74 27       	eor	r23, r20

	mov r30, ST21
     862:	e9 2d       	mov	r30, r9
	ld  M0, Z
     864:	00 81       	ld	r16, Z
	eor T0, M0
     866:	40 27       	eor	r20, r16
	eor T2, M0
     868:	60 27       	eor	r22, r16
	eor T3, M0 
     86a:	70 27       	eor	r23, r16
	mov r28, ST21
     86c:	c9 2d       	mov	r28, r9
	ld  M0, Y
     86e:	08 81       	ld	r16, Y
	eor T0, M0
     870:	40 27       	eor	r20, r16
	eor T1, M0 ;3, 2, 2, 1 완료
     872:	50 27       	eor	r21, r16

	mov r30, ST32
     874:	ee 2d       	mov	r30, r14
	ld  M0, Z
     876:	00 81       	ld	r16, Z
	eor T0, M0
     878:	40 27       	eor	r20, r16
	eor T1, M0
     87a:	50 27       	eor	r21, r16
	eor T3, M0 
     87c:	70 27       	eor	r23, r16
	mov r28, ST32
     87e:	ce 2d       	mov	r28, r14
	ld  M0, Y
     880:	08 81       	ld	r16, Y
	eor T1, M0
     882:	50 27       	eor	r21, r16
	eor T2, M0 ;1, 3, 2, 1 완료
     884:	60 27       	eor	r22, r16

	mov r30, ST03
     886:	e3 2d       	mov	r30, r3
	ld  M0, Z
     888:	00 81       	ld	r16, Z
	eor T0, M0
     88a:	40 27       	eor	r20, r16
	eor T1, M0
     88c:	50 27       	eor	r21, r16
	eor T2, M0 
     88e:	60 27       	eor	r22, r16
	mov r28, ST03
     890:	c3 2d       	mov	r28, r3
	ld  M0, Y
     892:	08 81       	ld	r16, Y
	eor T2, M0
     894:	60 27       	eor	r22, r16
	eor T3, M0 ;1, 1, 3, 2 완료
     896:	70 27       	eor	r23, r16

	mov ST10, T0
     898:	44 2e       	mov	r4, r20
	mov ST11, T1
     89a:	55 2e       	mov	r5, r21
	mov ST03, M3
     89c:	33 2e       	mov	r3, r19
	//! 2번째 열 완료

	//! 3번째 열 시작
	mov r30, ST20 
     89e:	e8 2d       	mov	r30, r8
	ld  T0, Z 
     8a0:	40 81       	ld	r20, Z
	mov T1, T0
     8a2:	54 2f       	mov	r21, r20
	mov M3, T1 
     8a4:	35 2f       	mov	r19, r21
	mov r28, ST20
     8a6:	c8 2d       	mov	r28, r8
	ld  M0, Y
     8a8:	08 81       	ld	r16, Y
	eor M3, M0 ; 2, 1, 1, 3 완료
     8aa:	30 27       	eor	r19, r16

	mov r30, ST31
     8ac:	ed 2d       	mov	r30, r13
	ld  r25, Z
     8ae:	90 81       	ld	r25, Z
	eor M0, r25
     8b0:	09 27       	eor	r16, r25
	eor T1, r25
     8b2:	59 27       	eor	r21, r25
	eor M3, r25
     8b4:	39 27       	eor	r19, r25
	mov r28, ST31
     8b6:	cd 2d       	mov	r28, r13
	ld  r25, Y
     8b8:	98 81       	ld	r25, Y
	eor M0, r25
     8ba:	09 27       	eor	r16, r25
	eor T0, r25 ;3, 2, 2, 1 완료
     8bc:	49 27       	eor	r20, r25

	mov r30, ST02
     8be:	e2 2d       	mov	r30, r2
	ld  r25, Z
     8c0:	90 81       	ld	r25, Z
	eor M0, r25
     8c2:	09 27       	eor	r16, r25
	eor T0, r25
     8c4:	49 27       	eor	r20, r25
	eor M3, r25
     8c6:	39 27       	eor	r19, r25
	mov r28, ST02
     8c8:	c2 2d       	mov	r28, r2
	ld  r25, Y
     8ca:	98 81       	ld	r25, Y
	eor T0, r25
     8cc:	49 27       	eor	r20, r25
	eor T1, r25;1, 3, 2, 1 완료
     8ce:	59 27       	eor	r21, r25

	mov r30, ST13
     8d0:	e7 2d       	mov	r30, r7
	ld  r25, Z
     8d2:	90 81       	ld	r25, Z
	eor M0, r25
     8d4:	09 27       	eor	r16, r25
	eor T0, r25
     8d6:	49 27       	eor	r20, r25
	eor T1, r25 
     8d8:	59 27       	eor	r21, r25
	mov r28, ST13
     8da:	c7 2d       	mov	r28, r7
	ld  r25, Y
     8dc:	98 81       	ld	r25, Y
	eor T1, r25
     8de:	59 27       	eor	r21, r25
	eor M3, r25 ;1, 1, 3, 2 완료
     8e0:	39 27       	eor	r19, r25

	mov ST20, M0
     8e2:	80 2e       	mov	r8, r16
	mov ST21, T0
     8e4:	94 2e       	mov	r9, r20
	mov ST22, T1
     8e6:	a5 2e       	mov	r10, r21
	mov ST13, T3
     8e8:	77 2e       	mov	r7, r23
	//! 3번째 열 완료



	//! 4번째 열 시작
	mov r30, ST30 
     8ea:	ec 2d       	mov	r30, r12
	ld  T1, Z 
     8ec:	50 81       	ld	r21, Z
	mov T3, T1
     8ee:	75 2f       	mov	r23, r21
	mov r25, T3 
     8f0:	97 2f       	mov	r25, r23
	mov r28, ST30
     8f2:	cc 2d       	mov	r28, r12
	ld  T0, Y
     8f4:	48 81       	ld	r20, Y
	eor r25, T0 ; 2, 1, 1, 3 완료
     8f6:	94 27       	eor	r25, r20

	mov r30, ST01
     8f8:	e1 2d       	mov	r30, r1
	ld  M0, Z
     8fa:	00 81       	ld	r16, Z
	eor T0, M0
     8fc:	40 27       	eor	r20, r16
	eor T3, M0
     8fe:	70 27       	eor	r23, r16
	eor r25, M0 
     900:	90 27       	eor	r25, r16
	mov r28, ST01
     902:	c1 2d       	mov	r28, r1
	ld  M0, Y
     904:	08 81       	ld	r16, Y
	eor T0, M0
     906:	40 27       	eor	r20, r16
	eor T1, M0 ;3, 2, 2, 1 완료
     908:	50 27       	eor	r21, r16

	mov r30, ST12
     90a:	e6 2d       	mov	r30, r6
	ld  M0, Z
     90c:	00 81       	ld	r16, Z
	eor T0, M0
     90e:	40 27       	eor	r20, r16
	eor T1, M0
     910:	50 27       	eor	r21, r16
	eor r25, M0 
     912:	90 27       	eor	r25, r16
	mov r28, ST12
     914:	c6 2d       	mov	r28, r6
	ld  M0, Y
     916:	08 81       	ld	r16, Y
	eor T1, M0
     918:	50 27       	eor	r21, r16
	eor T3, M0 ;1, 3, 2, 1 완료
     91a:	70 27       	eor	r23, r16

	mov r30, ST23
     91c:	eb 2d       	mov	r30, r11
	ld  M0, Z
     91e:	00 81       	ld	r16, Z
	eor T0, M0
     920:	40 27       	eor	r20, r16
	eor T1, M0
     922:	50 27       	eor	r21, r16
	eor T3, M0 
     924:	70 27       	eor	r23, r16
	mov r28, ST23
     926:	cb 2d       	mov	r28, r11
	ld  M0, Y
     928:	08 81       	ld	r16, Y
	eor T3, M0
     92a:	70 27       	eor	r23, r16
	eor r25, M0 ;1, 1, 3, 2 완료
     92c:	90 27       	eor	r25, r16

	mov ST30, T0
     92e:	c4 2e       	mov	r12, r20
	mov ST31, T1
     930:	d5 2e       	mov	r13, r21
	mov ST32, T3
     932:	e7 2e       	mov	r14, r23
	mov ST33, r25
     934:	f9 2e       	mov	r15, r25
	mov ST01, M1
     936:	11 2e       	mov	r1, r17
	mov ST02, M2
     938:	22 2e       	mov	r2, r18
	mov ST12, T2
     93a:	66 2e       	mov	r6, r22
	mov ST23, M3
     93c:	b3 2e       	mov	r11, r19
	.irp row, 0, 1, 2, 3
		.irp col, 0, 1, 2, 3
			ld r16, X+
			eor ST\row\col, r16
		.endr
	.endr
     93e:	0d 91       	ld	r16, X+
     940:	00 26       	eor	r0, r16
     942:	0d 91       	ld	r16, X+
     944:	10 26       	eor	r1, r16
     946:	0d 91       	ld	r16, X+
     948:	20 26       	eor	r2, r16
     94a:	0d 91       	ld	r16, X+
     94c:	30 26       	eor	r3, r16
     94e:	0d 91       	ld	r16, X+
     950:	40 26       	eor	r4, r16
     952:	0d 91       	ld	r16, X+
     954:	50 26       	eor	r5, r16
     956:	0d 91       	ld	r16, X+
     958:	60 26       	eor	r6, r16
     95a:	0d 91       	ld	r16, X+
     95c:	70 26       	eor	r7, r16
     95e:	0d 91       	ld	r16, X+
     960:	80 26       	eor	r8, r16
     962:	0d 91       	ld	r16, X+
     964:	90 26       	eor	r9, r16
     966:	0d 91       	ld	r16, X+
     968:	a0 26       	eor	r10, r16
     96a:	0d 91       	ld	r16, X+
     96c:	b0 26       	eor	r11, r16
     96e:	0d 91       	ld	r16, X+
     970:	c0 26       	eor	r12, r16
     972:	0d 91       	ld	r16, X+
     974:	d0 26       	eor	r13, r16
     976:	0d 91       	ld	r16, X+
     978:	e0 26       	eor	r14, r16
     97a:	0d 91       	ld	r16, X+
     97c:	f0 26       	eor	r15, r16
	
	//5 Round------------------------------------------------------------------------------------------
	
	/* Shift Row and Subbyte , Mixcolumns */
	//! 1번째 열 시작
	mov r30, ST00 
     97e:	e0 2d       	mov	r30, r0
	ld  M1, Z 
     980:	10 81       	ld	r17, Z
	mov M2, M1
     982:	21 2f       	mov	r18, r17
	mov M3, M2 
     984:	32 2f       	mov	r19, r18
	mov r28, ST00
     986:	c0 2d       	mov	r28, r0
	ld  M0, Y
     988:	08 81       	ld	r16, Y
	eor M3, M0 ; 2, 1, 1, 3 완료
     98a:	30 27       	eor	r19, r16

	mov r30, ST11
     98c:	e5 2d       	mov	r30, r5
	ld  T0, Z
     98e:	40 81       	ld	r20, Z
	eor M0, T0
     990:	04 27       	eor	r16, r20
	eor M2, T0
     992:	24 27       	eor	r18, r20
	eor M3, T0 
     994:	34 27       	eor	r19, r20
	mov r28, ST11
     996:	c5 2d       	mov	r28, r5
	ld  T0, Y
     998:	48 81       	ld	r20, Y
	eor M0, T0
     99a:	04 27       	eor	r16, r20
	eor M1, T0 ;3, 2, 2, 1 완료
     99c:	14 27       	eor	r17, r20

	mov r30, ST22
     99e:	ea 2d       	mov	r30, r10
	ld  T0, Z
     9a0:	40 81       	ld	r20, Z
	eor M0, T0
     9a2:	04 27       	eor	r16, r20
	eor M1, T0
     9a4:	14 27       	eor	r17, r20
	eor M3, T0
     9a6:	34 27       	eor	r19, r20
	mov r28, ST22
     9a8:	ca 2d       	mov	r28, r10
	ld  T0, Y
     9aa:	48 81       	ld	r20, Y
	eor M1, T0
     9ac:	14 27       	eor	r17, r20
	eor M2, T0 ;1, 3, 2, 1 완료
     9ae:	24 27       	eor	r18, r20

	mov r30, ST33
     9b0:	ef 2d       	mov	r30, r15
	ld  T0, Z
     9b2:	40 81       	ld	r20, Z
	eor M0, T0
     9b4:	04 27       	eor	r16, r20
	eor M1, T0
     9b6:	14 27       	eor	r17, r20
	eor M2, T0 
     9b8:	24 27       	eor	r18, r20
	mov r28, ST33
     9ba:	cf 2d       	mov	r28, r15
	ld  T0, Y
     9bc:	48 81       	ld	r20, Y
	eor M2, T0
     9be:	24 27       	eor	r18, r20
	eor M3, T0 ;1, 1, 3, 2 완료
     9c0:	34 27       	eor	r19, r20

	mov ST00, M0
     9c2:	00 2e       	mov	r0, r16
	//! 1번째 열 완료

	//! 2번째 열 시작
	mov r30, ST10 
     9c4:	e4 2d       	mov	r30, r4
	ld  T1, Z 
     9c6:	50 81       	ld	r21, Z
	mov T2, T1
     9c8:	65 2f       	mov	r22, r21
	mov T3, T2 
     9ca:	76 2f       	mov	r23, r22
	mov r28, ST10
     9cc:	c4 2d       	mov	r28, r4
	ld  T0, Y
     9ce:	48 81       	ld	r20, Y
	eor T3, T0 ; 2, 1, 1, 3 완료
     9d0:	74 27       	eor	r23, r20

	mov r30, ST21
     9d2:	e9 2d       	mov	r30, r9
	ld  M0, Z
     9d4:	00 81       	ld	r16, Z
	eor T0, M0
     9d6:	40 27       	eor	r20, r16
	eor T2, M0
     9d8:	60 27       	eor	r22, r16
	eor T3, M0 
     9da:	70 27       	eor	r23, r16
	mov r28, ST21
     9dc:	c9 2d       	mov	r28, r9
	ld  M0, Y
     9de:	08 81       	ld	r16, Y
	eor T0, M0
     9e0:	40 27       	eor	r20, r16
	eor T1, M0 ;3, 2, 2, 1 완료
     9e2:	50 27       	eor	r21, r16

	mov r30, ST32
     9e4:	ee 2d       	mov	r30, r14
	ld  M0, Z
     9e6:	00 81       	ld	r16, Z
	eor T0, M0
     9e8:	40 27       	eor	r20, r16
	eor T1, M0
     9ea:	50 27       	eor	r21, r16
	eor T3, M0 
     9ec:	70 27       	eor	r23, r16
	mov r28, ST32
     9ee:	ce 2d       	mov	r28, r14
	ld  M0, Y
     9f0:	08 81       	ld	r16, Y
	eor T1, M0
     9f2:	50 27       	eor	r21, r16
	eor T2, M0 ;1, 3, 2, 1 완료
     9f4:	60 27       	eor	r22, r16

	mov r30, ST03
     9f6:	e3 2d       	mov	r30, r3
	ld  M0, Z
     9f8:	00 81       	ld	r16, Z
	eor T0, M0
     9fa:	40 27       	eor	r20, r16
	eor T1, M0
     9fc:	50 27       	eor	r21, r16
	eor T2, M0 
     9fe:	60 27       	eor	r22, r16
	mov r28, ST03
     a00:	c3 2d       	mov	r28, r3
	ld  M0, Y
     a02:	08 81       	ld	r16, Y
	eor T2, M0
     a04:	60 27       	eor	r22, r16
	eor T3, M0 ;1, 1, 3, 2 완료
     a06:	70 27       	eor	r23, r16

	mov ST10, T0
     a08:	44 2e       	mov	r4, r20
	mov ST11, T1
     a0a:	55 2e       	mov	r5, r21
	mov ST03, M3
     a0c:	33 2e       	mov	r3, r19
	//! 2번째 열 완료

	//! 3번째 열 시작
	mov r30, ST20 
     a0e:	e8 2d       	mov	r30, r8
	ld  T0, Z 
     a10:	40 81       	ld	r20, Z
	mov T1, T0
     a12:	54 2f       	mov	r21, r20
	mov M3, T1 
     a14:	35 2f       	mov	r19, r21
	mov r28, ST20
     a16:	c8 2d       	mov	r28, r8
	ld  M0, Y
     a18:	08 81       	ld	r16, Y
	eor M3, M0 ; 2, 1, 1, 3 완료
     a1a:	30 27       	eor	r19, r16

	mov r30, ST31
     a1c:	ed 2d       	mov	r30, r13
	ld  r25, Z
     a1e:	90 81       	ld	r25, Z
	eor M0, r25
     a20:	09 27       	eor	r16, r25
	eor T1, r25
     a22:	59 27       	eor	r21, r25
	eor M3, r25
     a24:	39 27       	eor	r19, r25
	mov r28, ST31
     a26:	cd 2d       	mov	r28, r13
	ld  r25, Y
     a28:	98 81       	ld	r25, Y
	eor M0, r25
     a2a:	09 27       	eor	r16, r25
	eor T0, r25 ;3, 2, 2, 1 완료
     a2c:	49 27       	eor	r20, r25

	mov r30, ST02
     a2e:	e2 2d       	mov	r30, r2
	ld  r25, Z
     a30:	90 81       	ld	r25, Z
	eor M0, r25
     a32:	09 27       	eor	r16, r25
	eor T0, r25
     a34:	49 27       	eor	r20, r25
	eor M3, r25
     a36:	39 27       	eor	r19, r25
	mov r28, ST02
     a38:	c2 2d       	mov	r28, r2
	ld  r25, Y
     a3a:	98 81       	ld	r25, Y
	eor T0, r25
     a3c:	49 27       	eor	r20, r25
	eor T1, r25;1, 3, 2, 1 완료
     a3e:	59 27       	eor	r21, r25

	mov r30, ST13
     a40:	e7 2d       	mov	r30, r7
	ld  r25, Z
     a42:	90 81       	ld	r25, Z
	eor M0, r25
     a44:	09 27       	eor	r16, r25
	eor T0, r25
     a46:	49 27       	eor	r20, r25
	eor T1, r25 
     a48:	59 27       	eor	r21, r25
	mov r28, ST13
     a4a:	c7 2d       	mov	r28, r7
	ld  r25, Y
     a4c:	98 81       	ld	r25, Y
	eor T1, r25
     a4e:	59 27       	eor	r21, r25
	eor M3, r25 ;1, 1, 3, 2 완료
     a50:	39 27       	eor	r19, r25

	mov ST20, M0
     a52:	80 2e       	mov	r8, r16
	mov ST21, T0
     a54:	94 2e       	mov	r9, r20
	mov ST22, T1
     a56:	a5 2e       	mov	r10, r21
	mov ST13, T3
     a58:	77 2e       	mov	r7, r23
	//! 3번째 열 완료



	//! 4번째 열 시작
	mov r30, ST30 
     a5a:	ec 2d       	mov	r30, r12
	ld  T1, Z 
     a5c:	50 81       	ld	r21, Z
	mov T3, T1
     a5e:	75 2f       	mov	r23, r21
	mov r25, T3 
     a60:	97 2f       	mov	r25, r23
	mov r28, ST30
     a62:	cc 2d       	mov	r28, r12
	ld  T0, Y
     a64:	48 81       	ld	r20, Y
	eor r25, T0 ; 2, 1, 1, 3 완료
     a66:	94 27       	eor	r25, r20

	mov r30, ST01
     a68:	e1 2d       	mov	r30, r1
	ld  M0, Z
     a6a:	00 81       	ld	r16, Z
	eor T0, M0
     a6c:	40 27       	eor	r20, r16
	eor T3, M0
     a6e:	70 27       	eor	r23, r16
	eor r25, M0 
     a70:	90 27       	eor	r25, r16
	mov r28, ST01
     a72:	c1 2d       	mov	r28, r1
	ld  M0, Y
     a74:	08 81       	ld	r16, Y
	eor T0, M0
     a76:	40 27       	eor	r20, r16
	eor T1, M0 ;3, 2, 2, 1 완료
     a78:	50 27       	eor	r21, r16

	mov r30, ST12
     a7a:	e6 2d       	mov	r30, r6
	ld  M0, Z
     a7c:	00 81       	ld	r16, Z
	eor T0, M0
     a7e:	40 27       	eor	r20, r16
	eor T1, M0
     a80:	50 27       	eor	r21, r16
	eor r25, M0 
     a82:	90 27       	eor	r25, r16
	mov r28, ST12
     a84:	c6 2d       	mov	r28, r6
	ld  M0, Y
     a86:	08 81       	ld	r16, Y
	eor T1, M0
     a88:	50 27       	eor	r21, r16
	eor T3, M0 ;1, 3, 2, 1 완료
     a8a:	70 27       	eor	r23, r16

	mov r30, ST23
     a8c:	eb 2d       	mov	r30, r11
	ld  M0, Z
     a8e:	00 81       	ld	r16, Z
	eor T0, M0
     a90:	40 27       	eor	r20, r16
	eor T1, M0
     a92:	50 27       	eor	r21, r16
	eor T3, M0 
     a94:	70 27       	eor	r23, r16
	mov r28, ST23
     a96:	cb 2d       	mov	r28, r11
	ld  M0, Y
     a98:	08 81       	ld	r16, Y
	eor T3, M0
     a9a:	70 27       	eor	r23, r16
	eor r25, M0 ;1, 1, 3, 2 완료
     a9c:	90 27       	eor	r25, r16

	mov ST30, T0
     a9e:	c4 2e       	mov	r12, r20
	mov ST31, T1
     aa0:	d5 2e       	mov	r13, r21
	mov ST32, T3
     aa2:	e7 2e       	mov	r14, r23
	mov ST33, r25
     aa4:	f9 2e       	mov	r15, r25
	mov ST01, M1
     aa6:	11 2e       	mov	r1, r17
	mov ST02, M2
     aa8:	22 2e       	mov	r2, r18
	mov ST12, T2
     aaa:	66 2e       	mov	r6, r22
	mov ST23, M3
     aac:	b3 2e       	mov	r11, r19
	.irp row, 0, 1, 2, 3
		.irp col, 0, 1, 2, 3
			ld r16, X+
			eor ST\row\col, r16
		.endr
	.endr
     aae:	0d 91       	ld	r16, X+
     ab0:	00 26       	eor	r0, r16
     ab2:	0d 91       	ld	r16, X+
     ab4:	10 26       	eor	r1, r16
     ab6:	0d 91       	ld	r16, X+
     ab8:	20 26       	eor	r2, r16
     aba:	0d 91       	ld	r16, X+
     abc:	30 26       	eor	r3, r16
     abe:	0d 91       	ld	r16, X+
     ac0:	40 26       	eor	r4, r16
     ac2:	0d 91       	ld	r16, X+
     ac4:	50 26       	eor	r5, r16
     ac6:	0d 91       	ld	r16, X+
     ac8:	60 26       	eor	r6, r16
     aca:	0d 91       	ld	r16, X+
     acc:	70 26       	eor	r7, r16
     ace:	0d 91       	ld	r16, X+
     ad0:	80 26       	eor	r8, r16
     ad2:	0d 91       	ld	r16, X+
     ad4:	90 26       	eor	r9, r16
     ad6:	0d 91       	ld	r16, X+
     ad8:	a0 26       	eor	r10, r16
     ada:	0d 91       	ld	r16, X+
     adc:	b0 26       	eor	r11, r16
     ade:	0d 91       	ld	r16, X+
     ae0:	c0 26       	eor	r12, r16
     ae2:	0d 91       	ld	r16, X+
     ae4:	d0 26       	eor	r13, r16
     ae6:	0d 91       	ld	r16, X+
     ae8:	e0 26       	eor	r14, r16
     aea:	0d 91       	ld	r16, X+
     aec:	f0 26       	eor	r15, r16
	
	//6 Round------------------------------------------------------------------------------------------
	
	/* Shift Row and Subbyte , Mixcolumns */
	//! 1번째 열 시작
	mov r30, ST00 
     aee:	e0 2d       	mov	r30, r0
	ld  M1, Z 
     af0:	10 81       	ld	r17, Z
	mov M2, M1
     af2:	21 2f       	mov	r18, r17
	mov M3, M2 
     af4:	32 2f       	mov	r19, r18
	mov r28, ST00
     af6:	c0 2d       	mov	r28, r0
	ld  M0, Y
     af8:	08 81       	ld	r16, Y
	eor M3, M0 ; 2, 1, 1, 3 완료
     afa:	30 27       	eor	r19, r16

	mov r30, ST11
     afc:	e5 2d       	mov	r30, r5
	ld  T0, Z
     afe:	40 81       	ld	r20, Z
	eor M0, T0
     b00:	04 27       	eor	r16, r20
	eor M2, T0
     b02:	24 27       	eor	r18, r20
	eor M3, T0 
     b04:	34 27       	eor	r19, r20
	mov r28, ST11
     b06:	c5 2d       	mov	r28, r5
	ld  T0, Y
     b08:	48 81       	ld	r20, Y
	eor M0, T0
     b0a:	04 27       	eor	r16, r20
	eor M1, T0 ;3, 2, 2, 1 완료
     b0c:	14 27       	eor	r17, r20

	mov r30, ST22
     b0e:	ea 2d       	mov	r30, r10
	ld  T0, Z
     b10:	40 81       	ld	r20, Z
	eor M0, T0
     b12:	04 27       	eor	r16, r20
	eor M1, T0
     b14:	14 27       	eor	r17, r20
	eor M3, T0
     b16:	34 27       	eor	r19, r20
	mov r28, ST22
     b18:	ca 2d       	mov	r28, r10
	ld  T0, Y
     b1a:	48 81       	ld	r20, Y
	eor M1, T0
     b1c:	14 27       	eor	r17, r20
	eor M2, T0 ;1, 3, 2, 1 완료
     b1e:	24 27       	eor	r18, r20

	mov r30, ST33
     b20:	ef 2d       	mov	r30, r15
	ld  T0, Z
     b22:	40 81       	ld	r20, Z
	eor M0, T0
     b24:	04 27       	eor	r16, r20
	eor M1, T0
     b26:	14 27       	eor	r17, r20
	eor M2, T0 
     b28:	24 27       	eor	r18, r20
	mov r28, ST33
     b2a:	cf 2d       	mov	r28, r15
	ld  T0, Y
     b2c:	48 81       	ld	r20, Y
	eor M2, T0
     b2e:	24 27       	eor	r18, r20
	eor M3, T0 ;1, 1, 3, 2 완료
     b30:	34 27       	eor	r19, r20

	mov ST00, M0
     b32:	00 2e       	mov	r0, r16
	//! 1번째 열 완료

	//! 2번째 열 시작
	mov r30, ST10 
     b34:	e4 2d       	mov	r30, r4
	ld  T1, Z 
     b36:	50 81       	ld	r21, Z
	mov T2, T1
     b38:	65 2f       	mov	r22, r21
	mov T3, T2 
     b3a:	76 2f       	mov	r23, r22
	mov r28, ST10
     b3c:	c4 2d       	mov	r28, r4
	ld  T0, Y
     b3e:	48 81       	ld	r20, Y
	eor T3, T0 ; 2, 1, 1, 3 완료
     b40:	74 27       	eor	r23, r20

	mov r30, ST21
     b42:	e9 2d       	mov	r30, r9
	ld  M0, Z
     b44:	00 81       	ld	r16, Z
	eor T0, M0
     b46:	40 27       	eor	r20, r16
	eor T2, M0
     b48:	60 27       	eor	r22, r16
	eor T3, M0 
     b4a:	70 27       	eor	r23, r16
	mov r28, ST21
     b4c:	c9 2d       	mov	r28, r9
	ld  M0, Y
     b4e:	08 81       	ld	r16, Y
	eor T0, M0
     b50:	40 27       	eor	r20, r16
	eor T1, M0 ;3, 2, 2, 1 완료
     b52:	50 27       	eor	r21, r16

	mov r30, ST32
     b54:	ee 2d       	mov	r30, r14
	ld  M0, Z
     b56:	00 81       	ld	r16, Z
	eor T0, M0
     b58:	40 27       	eor	r20, r16
	eor T1, M0
     b5a:	50 27       	eor	r21, r16
	eor T3, M0 
     b5c:	70 27       	eor	r23, r16
	mov r28, ST32
     b5e:	ce 2d       	mov	r28, r14
	ld  M0, Y
     b60:	08 81       	ld	r16, Y
	eor T1, M0
     b62:	50 27       	eor	r21, r16
	eor T2, M0 ;1, 3, 2, 1 완료
     b64:	60 27       	eor	r22, r16

	mov r30, ST03
     b66:	e3 2d       	mov	r30, r3
	ld  M0, Z
     b68:	00 81       	ld	r16, Z
	eor T0, M0
     b6a:	40 27       	eor	r20, r16
	eor T1, M0
     b6c:	50 27       	eor	r21, r16
	eor T2, M0 
     b6e:	60 27       	eor	r22, r16
	mov r28, ST03
     b70:	c3 2d       	mov	r28, r3
	ld  M0, Y
     b72:	08 81       	ld	r16, Y
	eor T2, M0
     b74:	60 27       	eor	r22, r16
	eor T3, M0 ;1, 1, 3, 2 완료
     b76:	70 27       	eor	r23, r16

	mov ST10, T0
     b78:	44 2e       	mov	r4, r20
	mov ST11, T1
     b7a:	55 2e       	mov	r5, r21
	mov ST03, M3
     b7c:	33 2e       	mov	r3, r19
	//! 2번째 열 완료

	//! 3번째 열 시작
	mov r30, ST20 
     b7e:	e8 2d       	mov	r30, r8
	ld  T0, Z 
     b80:	40 81       	ld	r20, Z
	mov T1, T0
     b82:	54 2f       	mov	r21, r20
	mov M3, T1 
     b84:	35 2f       	mov	r19, r21
	mov r28, ST20
     b86:	c8 2d       	mov	r28, r8
	ld  M0, Y
     b88:	08 81       	ld	r16, Y
	eor M3, M0 ; 2, 1, 1, 3 완료
     b8a:	30 27       	eor	r19, r16

	mov r30, ST31
     b8c:	ed 2d       	mov	r30, r13
	ld  r25, Z
     b8e:	90 81       	ld	r25, Z
	eor M0, r25
     b90:	09 27       	eor	r16, r25
	eor T1, r25
     b92:	59 27       	eor	r21, r25
	eor M3, r25
     b94:	39 27       	eor	r19, r25
	mov r28, ST31
     b96:	cd 2d       	mov	r28, r13
	ld  r25, Y
     b98:	98 81       	ld	r25, Y
	eor M0, r25
     b9a:	09 27       	eor	r16, r25
	eor T0, r25 ;3, 2, 2, 1 완료
     b9c:	49 27       	eor	r20, r25

	mov r30, ST02
     b9e:	e2 2d       	mov	r30, r2
	ld  r25, Z
     ba0:	90 81       	ld	r25, Z
	eor M0, r25
     ba2:	09 27       	eor	r16, r25
	eor T0, r25
     ba4:	49 27       	eor	r20, r25
	eor M3, r25
     ba6:	39 27       	eor	r19, r25
	mov r28, ST02
     ba8:	c2 2d       	mov	r28, r2
	ld  r25, Y
     baa:	98 81       	ld	r25, Y
	eor T0, r25
     bac:	49 27       	eor	r20, r25
	eor T1, r25;1, 3, 2, 1 완료
     bae:	59 27       	eor	r21, r25

	mov r30, ST13
     bb0:	e7 2d       	mov	r30, r7
	ld  r25, Z
     bb2:	90 81       	ld	r25, Z
	eor M0, r25
     bb4:	09 27       	eor	r16, r25
	eor T0, r25
     bb6:	49 27       	eor	r20, r25
	eor T1, r25 
     bb8:	59 27       	eor	r21, r25
	mov r28, ST13
     bba:	c7 2d       	mov	r28, r7
	ld  r25, Y
     bbc:	98 81       	ld	r25, Y
	eor T1, r25
     bbe:	59 27       	eor	r21, r25
	eor M3, r25 ;1, 1, 3, 2 완료
     bc0:	39 27       	eor	r19, r25

	mov ST20, M0
     bc2:	80 2e       	mov	r8, r16
	mov ST21, T0
     bc4:	94 2e       	mov	r9, r20
	mov ST22, T1
     bc6:	a5 2e       	mov	r10, r21
	mov ST13, T3
     bc8:	77 2e       	mov	r7, r23
	//! 3번째 열 완료



	//! 4번째 열 시작
	mov r30, ST30 
     bca:	ec 2d       	mov	r30, r12
	ld  T1, Z 
     bcc:	50 81       	ld	r21, Z
	mov T3, T1
     bce:	75 2f       	mov	r23, r21
	mov r25, T3 
     bd0:	97 2f       	mov	r25, r23
	mov r28, ST30
     bd2:	cc 2d       	mov	r28, r12
	ld  T0, Y
     bd4:	48 81       	ld	r20, Y
	eor r25, T0 ; 2, 1, 1, 3 완료
     bd6:	94 27       	eor	r25, r20

	mov r30, ST01
     bd8:	e1 2d       	mov	r30, r1
	ld  M0, Z
     bda:	00 81       	ld	r16, Z
	eor T0, M0
     bdc:	40 27       	eor	r20, r16
	eor T3, M0
     bde:	70 27       	eor	r23, r16
	eor r25, M0 
     be0:	90 27       	eor	r25, r16
	mov r28, ST01
     be2:	c1 2d       	mov	r28, r1
	ld  M0, Y
     be4:	08 81       	ld	r16, Y
	eor T0, M0
     be6:	40 27       	eor	r20, r16
	eor T1, M0 ;3, 2, 2, 1 완료
     be8:	50 27       	eor	r21, r16

	mov r30, ST12
     bea:	e6 2d       	mov	r30, r6
	ld  M0, Z
     bec:	00 81       	ld	r16, Z
	eor T0, M0
     bee:	40 27       	eor	r20, r16
	eor T1, M0
     bf0:	50 27       	eor	r21, r16
	eor r25, M0 
     bf2:	90 27       	eor	r25, r16
	mov r28, ST12
     bf4:	c6 2d       	mov	r28, r6
	ld  M0, Y
     bf6:	08 81       	ld	r16, Y
	eor T1, M0
     bf8:	50 27       	eor	r21, r16
	eor T3, M0 ;1, 3, 2, 1 완료
     bfa:	70 27       	eor	r23, r16

	mov r30, ST23
     bfc:	eb 2d       	mov	r30, r11
	ld  M0, Z
     bfe:	00 81       	ld	r16, Z
	eor T0, M0
     c00:	40 27       	eor	r20, r16
	eor T1, M0
     c02:	50 27       	eor	r21, r16
	eor T3, M0 
     c04:	70 27       	eor	r23, r16
	mov r28, ST23
     c06:	cb 2d       	mov	r28, r11
	ld  M0, Y
     c08:	08 81       	ld	r16, Y
	eor T3, M0
     c0a:	70 27       	eor	r23, r16
	eor r25, M0 ;1, 1, 3, 2 완료
     c0c:	90 27       	eor	r25, r16

	mov ST30, T0
     c0e:	c4 2e       	mov	r12, r20
	mov ST31, T1
     c10:	d5 2e       	mov	r13, r21
	mov ST32, T3
     c12:	e7 2e       	mov	r14, r23
	mov ST33, r25
     c14:	f9 2e       	mov	r15, r25
	mov ST01, M1
     c16:	11 2e       	mov	r1, r17
	mov ST02, M2
     c18:	22 2e       	mov	r2, r18
	mov ST12, T2
     c1a:	66 2e       	mov	r6, r22
	mov ST23, M3
     c1c:	b3 2e       	mov	r11, r19
	.irp row, 0, 1, 2, 3
		.irp col, 0, 1, 2, 3
			ld r16, X+
			eor ST\row\col, r16
		.endr
	.endr
     c1e:	0d 91       	ld	r16, X+
     c20:	00 26       	eor	r0, r16
     c22:	0d 91       	ld	r16, X+
     c24:	10 26       	eor	r1, r16
     c26:	0d 91       	ld	r16, X+
     c28:	20 26       	eor	r2, r16
     c2a:	0d 91       	ld	r16, X+
     c2c:	30 26       	eor	r3, r16
     c2e:	0d 91       	ld	r16, X+
     c30:	40 26       	eor	r4, r16
     c32:	0d 91       	ld	r16, X+
     c34:	50 26       	eor	r5, r16
     c36:	0d 91       	ld	r16, X+
     c38:	60 26       	eor	r6, r16
     c3a:	0d 91       	ld	r16, X+
     c3c:	70 26       	eor	r7, r16
     c3e:	0d 91       	ld	r16, X+
     c40:	80 26       	eor	r8, r16
     c42:	0d 91       	ld	r16, X+
     c44:	90 26       	eor	r9, r16
     c46:	0d 91       	ld	r16, X+
     c48:	a0 26       	eor	r10, r16
     c4a:	0d 91       	ld	r16, X+
     c4c:	b0 26       	eor	r11, r16
     c4e:	0d 91       	ld	r16, X+
     c50:	c0 26       	eor	r12, r16
     c52:	0d 91       	ld	r16, X+
     c54:	d0 26       	eor	r13, r16
     c56:	0d 91       	ld	r16, X+
     c58:	e0 26       	eor	r14, r16
     c5a:	0d 91       	ld	r16, X+
     c5c:	f0 26       	eor	r15, r16
	
	//7 Round------------------------------------------------------------------------------------------
	
	/* Shift Row and Subbyte , Mixcolumns */
	//! 1번째 열 시작
	mov r30, ST00 
     c5e:	e0 2d       	mov	r30, r0
	ld  M1, Z 
     c60:	10 81       	ld	r17, Z
	mov M2, M1
     c62:	21 2f       	mov	r18, r17
	mov M3, M2 
     c64:	32 2f       	mov	r19, r18
	mov r28, ST00
     c66:	c0 2d       	mov	r28, r0
	ld  M0, Y
     c68:	08 81       	ld	r16, Y
	eor M3, M0 ; 2, 1, 1, 3 완료
     c6a:	30 27       	eor	r19, r16

	mov r30, ST11
     c6c:	e5 2d       	mov	r30, r5
	ld  T0, Z
     c6e:	40 81       	ld	r20, Z
	eor M0, T0
     c70:	04 27       	eor	r16, r20
	eor M2, T0
     c72:	24 27       	eor	r18, r20
	eor M3, T0 
     c74:	34 27       	eor	r19, r20
	mov r28, ST11
     c76:	c5 2d       	mov	r28, r5
	ld  T0, Y
     c78:	48 81       	ld	r20, Y
	eor M0, T0
     c7a:	04 27       	eor	r16, r20
	eor M1, T0 ;3, 2, 2, 1 완료
     c7c:	14 27       	eor	r17, r20

	mov r30, ST22
     c7e:	ea 2d       	mov	r30, r10
	ld  T0, Z
     c80:	40 81       	ld	r20, Z
	eor M0, T0
     c82:	04 27       	eor	r16, r20
	eor M1, T0
     c84:	14 27       	eor	r17, r20
	eor M3, T0
     c86:	34 27       	eor	r19, r20
	mov r28, ST22
     c88:	ca 2d       	mov	r28, r10
	ld  T0, Y
     c8a:	48 81       	ld	r20, Y
	eor M1, T0
     c8c:	14 27       	eor	r17, r20
	eor M2, T0 ;1, 3, 2, 1 완료
     c8e:	24 27       	eor	r18, r20

	mov r30, ST33
     c90:	ef 2d       	mov	r30, r15
	ld  T0, Z
     c92:	40 81       	ld	r20, Z
	eor M0, T0
     c94:	04 27       	eor	r16, r20
	eor M1, T0
     c96:	14 27       	eor	r17, r20
	eor M2, T0 
     c98:	24 27       	eor	r18, r20
	mov r28, ST33
     c9a:	cf 2d       	mov	r28, r15
	ld  T0, Y
     c9c:	48 81       	ld	r20, Y
	eor M2, T0
     c9e:	24 27       	eor	r18, r20
	eor M3, T0 ;1, 1, 3, 2 완료
     ca0:	34 27       	eor	r19, r20

	mov ST00, M0
     ca2:	00 2e       	mov	r0, r16
	//! 1번째 열 완료

	//! 2번째 열 시작
	mov r30, ST10 
     ca4:	e4 2d       	mov	r30, r4
	ld  T1, Z 
     ca6:	50 81       	ld	r21, Z
	mov T2, T1
     ca8:	65 2f       	mov	r22, r21
	mov T3, T2 
     caa:	76 2f       	mov	r23, r22
	mov r28, ST10
     cac:	c4 2d       	mov	r28, r4
	ld  T0, Y
     cae:	48 81       	ld	r20, Y
	eor T3, T0 ; 2, 1, 1, 3 완료
     cb0:	74 27       	eor	r23, r20

	mov r30, ST21
     cb2:	e9 2d       	mov	r30, r9
	ld  M0, Z
     cb4:	00 81       	ld	r16, Z
	eor T0, M0
     cb6:	40 27       	eor	r20, r16
	eor T2, M0
     cb8:	60 27       	eor	r22, r16
	eor T3, M0 
     cba:	70 27       	eor	r23, r16
	mov r28, ST21
     cbc:	c9 2d       	mov	r28, r9
	ld  M0, Y
     cbe:	08 81       	ld	r16, Y
	eor T0, M0
     cc0:	40 27       	eor	r20, r16
	eor T1, M0 ;3, 2, 2, 1 완료
     cc2:	50 27       	eor	r21, r16

	mov r30, ST32
     cc4:	ee 2d       	mov	r30, r14
	ld  M0, Z
     cc6:	00 81       	ld	r16, Z
	eor T0, M0
     cc8:	40 27       	eor	r20, r16
	eor T1, M0
     cca:	50 27       	eor	r21, r16
	eor T3, M0 
     ccc:	70 27       	eor	r23, r16
	mov r28, ST32
     cce:	ce 2d       	mov	r28, r14
	ld  M0, Y
     cd0:	08 81       	ld	r16, Y
	eor T1, M0
     cd2:	50 27       	eor	r21, r16
	eor T2, M0 ;1, 3, 2, 1 완료
     cd4:	60 27       	eor	r22, r16

	mov r30, ST03
     cd6:	e3 2d       	mov	r30, r3
	ld  M0, Z
     cd8:	00 81       	ld	r16, Z
	eor T0, M0
     cda:	40 27       	eor	r20, r16
	eor T1, M0
     cdc:	50 27       	eor	r21, r16
	eor T2, M0 
     cde:	60 27       	eor	r22, r16
	mov r28, ST03
     ce0:	c3 2d       	mov	r28, r3
	ld  M0, Y
     ce2:	08 81       	ld	r16, Y
	eor T2, M0
     ce4:	60 27       	eor	r22, r16
	eor T3, M0 ;1, 1, 3, 2 완료
     ce6:	70 27       	eor	r23, r16

	mov ST10, T0
     ce8:	44 2e       	mov	r4, r20
	mov ST11, T1
     cea:	55 2e       	mov	r5, r21
	mov ST03, M3
     cec:	33 2e       	mov	r3, r19
	//! 2번째 열 완료

	//! 3번째 열 시작
	mov r30, ST20 
     cee:	e8 2d       	mov	r30, r8
	ld  T0, Z 
     cf0:	40 81       	ld	r20, Z
	mov T1, T0
     cf2:	54 2f       	mov	r21, r20
	mov M3, T1 
     cf4:	35 2f       	mov	r19, r21
	mov r28, ST20
     cf6:	c8 2d       	mov	r28, r8
	ld  M0, Y
     cf8:	08 81       	ld	r16, Y
	eor M3, M0 ; 2, 1, 1, 3 완료
     cfa:	30 27       	eor	r19, r16

	mov r30, ST31
     cfc:	ed 2d       	mov	r30, r13
	ld  r25, Z
     cfe:	90 81       	ld	r25, Z
	eor M0, r25
     d00:	09 27       	eor	r16, r25
	eor T1, r25
     d02:	59 27       	eor	r21, r25
	eor M3, r25
     d04:	39 27       	eor	r19, r25
	mov r28, ST31
     d06:	cd 2d       	mov	r28, r13
	ld  r25, Y
     d08:	98 81       	ld	r25, Y
	eor M0, r25
     d0a:	09 27       	eor	r16, r25
	eor T0, r25 ;3, 2, 2, 1 완료
     d0c:	49 27       	eor	r20, r25

	mov r30, ST02
     d0e:	e2 2d       	mov	r30, r2
	ld  r25, Z
     d10:	90 81       	ld	r25, Z
	eor M0, r25
     d12:	09 27       	eor	r16, r25
	eor T0, r25
     d14:	49 27       	eor	r20, r25
	eor M3, r25
     d16:	39 27       	eor	r19, r25
	mov r28, ST02
     d18:	c2 2d       	mov	r28, r2
	ld  r25, Y
     d1a:	98 81       	ld	r25, Y
	eor T0, r25
     d1c:	49 27       	eor	r20, r25
	eor T1, r25;1, 3, 2, 1 완료
     d1e:	59 27       	eor	r21, r25

	mov r30, ST13
     d20:	e7 2d       	mov	r30, r7
	ld  r25, Z
     d22:	90 81       	ld	r25, Z
	eor M0, r25
     d24:	09 27       	eor	r16, r25
	eor T0, r25
     d26:	49 27       	eor	r20, r25
	eor T1, r25 
     d28:	59 27       	eor	r21, r25
	mov r28, ST13
     d2a:	c7 2d       	mov	r28, r7
	ld  r25, Y
     d2c:	98 81       	ld	r25, Y
	eor T1, r25
     d2e:	59 27       	eor	r21, r25
	eor M3, r25 ;1, 1, 3, 2 완료
     d30:	39 27       	eor	r19, r25

	mov ST20, M0
     d32:	80 2e       	mov	r8, r16
	mov ST21, T0
     d34:	94 2e       	mov	r9, r20
	mov ST22, T1
     d36:	a5 2e       	mov	r10, r21
	mov ST13, T3
     d38:	77 2e       	mov	r7, r23
	//! 3번째 열 완료



	//! 4번째 열 시작
	mov r30, ST30 
     d3a:	ec 2d       	mov	r30, r12
	ld  T1, Z 
     d3c:	50 81       	ld	r21, Z
	mov T3, T1
     d3e:	75 2f       	mov	r23, r21
	mov r25, T3 
     d40:	97 2f       	mov	r25, r23
	mov r28, ST30
     d42:	cc 2d       	mov	r28, r12
	ld  T0, Y
     d44:	48 81       	ld	r20, Y
	eor r25, T0 ; 2, 1, 1, 3 완료
     d46:	94 27       	eor	r25, r20

	mov r30, ST01
     d48:	e1 2d       	mov	r30, r1
	ld  M0, Z
     d4a:	00 81       	ld	r16, Z
	eor T0, M0
     d4c:	40 27       	eor	r20, r16
	eor T3, M0
     d4e:	70 27       	eor	r23, r16
	eor r25, M0 
     d50:	90 27       	eor	r25, r16
	mov r28, ST01
     d52:	c1 2d       	mov	r28, r1
	ld  M0, Y
     d54:	08 81       	ld	r16, Y
	eor T0, M0
     d56:	40 27       	eor	r20, r16
	eor T1, M0 ;3, 2, 2, 1 완료
     d58:	50 27       	eor	r21, r16

	mov r30, ST12
     d5a:	e6 2d       	mov	r30, r6
	ld  M0, Z
     d5c:	00 81       	ld	r16, Z
	eor T0, M0
     d5e:	40 27       	eor	r20, r16
	eor T1, M0
     d60:	50 27       	eor	r21, r16
	eor r25, M0 
     d62:	90 27       	eor	r25, r16
	mov r28, ST12
     d64:	c6 2d       	mov	r28, r6
	ld  M0, Y
     d66:	08 81       	ld	r16, Y
	eor T1, M0
     d68:	50 27       	eor	r21, r16
	eor T3, M0 ;1, 3, 2, 1 완료
     d6a:	70 27       	eor	r23, r16

	mov r30, ST23
     d6c:	eb 2d       	mov	r30, r11
	ld  M0, Z
     d6e:	00 81       	ld	r16, Z
	eor T0, M0
     d70:	40 27       	eor	r20, r16
	eor T1, M0
     d72:	50 27       	eor	r21, r16
	eor T3, M0 
     d74:	70 27       	eor	r23, r16
	mov r28, ST23
     d76:	cb 2d       	mov	r28, r11
	ld  M0, Y
     d78:	08 81       	ld	r16, Y
	eor T3, M0
     d7a:	70 27       	eor	r23, r16
	eor r25, M0 ;1, 1, 3, 2 완료
     d7c:	90 27       	eor	r25, r16

	mov ST30, T0
     d7e:	c4 2e       	mov	r12, r20
	mov ST31, T1
     d80:	d5 2e       	mov	r13, r21
	mov ST32, T3
     d82:	e7 2e       	mov	r14, r23
	mov ST33, r25
     d84:	f9 2e       	mov	r15, r25
	mov ST01, M1
     d86:	11 2e       	mov	r1, r17
	mov ST02, M2
     d88:	22 2e       	mov	r2, r18
	mov ST12, T2
     d8a:	66 2e       	mov	r6, r22
	mov ST23, M3
     d8c:	b3 2e       	mov	r11, r19
	.irp row, 0, 1, 2, 3
		.irp col, 0, 1, 2, 3
			ld r16, X+
			eor ST\row\col, r16
		.endr
	.endr
     d8e:	0d 91       	ld	r16, X+
     d90:	00 26       	eor	r0, r16
     d92:	0d 91       	ld	r16, X+
     d94:	10 26       	eor	r1, r16
     d96:	0d 91       	ld	r16, X+
     d98:	20 26       	eor	r2, r16
     d9a:	0d 91       	ld	r16, X+
     d9c:	30 26       	eor	r3, r16
     d9e:	0d 91       	ld	r16, X+
     da0:	40 26       	eor	r4, r16
     da2:	0d 91       	ld	r16, X+
     da4:	50 26       	eor	r5, r16
     da6:	0d 91       	ld	r16, X+
     da8:	60 26       	eor	r6, r16
     daa:	0d 91       	ld	r16, X+
     dac:	70 26       	eor	r7, r16
     dae:	0d 91       	ld	r16, X+
     db0:	80 26       	eor	r8, r16
     db2:	0d 91       	ld	r16, X+
     db4:	90 26       	eor	r9, r16
     db6:	0d 91       	ld	r16, X+
     db8:	a0 26       	eor	r10, r16
     dba:	0d 91       	ld	r16, X+
     dbc:	b0 26       	eor	r11, r16
     dbe:	0d 91       	ld	r16, X+
     dc0:	c0 26       	eor	r12, r16
     dc2:	0d 91       	ld	r16, X+
     dc4:	d0 26       	eor	r13, r16
     dc6:	0d 91       	ld	r16, X+
     dc8:	e0 26       	eor	r14, r16
     dca:	0d 91       	ld	r16, X+
     dcc:	f0 26       	eor	r15, r16
	
	//8 Round------------------------------------------------------------------------------------------
	
	/* Shift Row and Subbyte , Mixcolumns */
	//! 1번째 열 시작
	mov r30, ST00 
     dce:	e0 2d       	mov	r30, r0
	ld  M1, Z 
     dd0:	10 81       	ld	r17, Z
	mov M2, M1
     dd2:	21 2f       	mov	r18, r17
	mov M3, M2 
     dd4:	32 2f       	mov	r19, r18
	mov r28, ST00
     dd6:	c0 2d       	mov	r28, r0
	ld  M0, Y
     dd8:	08 81       	ld	r16, Y
	eor M3, M0 ; 2, 1, 1, 3 완료
     dda:	30 27       	eor	r19, r16

	mov r30, ST11
     ddc:	e5 2d       	mov	r30, r5
	ld  T0, Z
     dde:	40 81       	ld	r20, Z
	eor M0, T0
     de0:	04 27       	eor	r16, r20
	eor M2, T0
     de2:	24 27       	eor	r18, r20
	eor M3, T0 
     de4:	34 27       	eor	r19, r20
	mov r28, ST11
     de6:	c5 2d       	mov	r28, r5
	ld  T0, Y
     de8:	48 81       	ld	r20, Y
	eor M0, T0
     dea:	04 27       	eor	r16, r20
	eor M1, T0 ;3, 2, 2, 1 완료
     dec:	14 27       	eor	r17, r20

	mov r30, ST22
     dee:	ea 2d       	mov	r30, r10
	ld  T0, Z
     df0:	40 81       	ld	r20, Z
	eor M0, T0
     df2:	04 27       	eor	r16, r20
	eor M1, T0
     df4:	14 27       	eor	r17, r20
	eor M3, T0
     df6:	34 27       	eor	r19, r20
	mov r28, ST22
     df8:	ca 2d       	mov	r28, r10
	ld  T0, Y
     dfa:	48 81       	ld	r20, Y
	eor M1, T0
     dfc:	14 27       	eor	r17, r20
	eor M2, T0 ;1, 3, 2, 1 완료
     dfe:	24 27       	eor	r18, r20

	mov r30, ST33
     e00:	ef 2d       	mov	r30, r15
	ld  T0, Z
     e02:	40 81       	ld	r20, Z
	eor M0, T0
     e04:	04 27       	eor	r16, r20
	eor M1, T0
     e06:	14 27       	eor	r17, r20
	eor M2, T0 
     e08:	24 27       	eor	r18, r20
	mov r28, ST33
     e0a:	cf 2d       	mov	r28, r15
	ld  T0, Y
     e0c:	48 81       	ld	r20, Y
	eor M2, T0
     e0e:	24 27       	eor	r18, r20
	eor M3, T0 ;1, 1, 3, 2 완료
     e10:	34 27       	eor	r19, r20

	mov ST00, M0
     e12:	00 2e       	mov	r0, r16
	//! 1번째 열 완료

	//! 2번째 열 시작
	mov r30, ST10 
     e14:	e4 2d       	mov	r30, r4
	ld  T1, Z 
     e16:	50 81       	ld	r21, Z
	mov T2, T1
     e18:	65 2f       	mov	r22, r21
	mov T3, T2 
     e1a:	76 2f       	mov	r23, r22
	mov r28, ST10
     e1c:	c4 2d       	mov	r28, r4
	ld  T0, Y
     e1e:	48 81       	ld	r20, Y
	eor T3, T0 ; 2, 1, 1, 3 완료
     e20:	74 27       	eor	r23, r20

	mov r30, ST21
     e22:	e9 2d       	mov	r30, r9
	ld  M0, Z
     e24:	00 81       	ld	r16, Z
	eor T0, M0
     e26:	40 27       	eor	r20, r16
	eor T2, M0
     e28:	60 27       	eor	r22, r16
	eor T3, M0 
     e2a:	70 27       	eor	r23, r16
	mov r28, ST21
     e2c:	c9 2d       	mov	r28, r9
	ld  M0, Y
     e2e:	08 81       	ld	r16, Y
	eor T0, M0
     e30:	40 27       	eor	r20, r16
	eor T1, M0 ;3, 2, 2, 1 완료
     e32:	50 27       	eor	r21, r16

	mov r30, ST32
     e34:	ee 2d       	mov	r30, r14
	ld  M0, Z
     e36:	00 81       	ld	r16, Z
	eor T0, M0
     e38:	40 27       	eor	r20, r16
	eor T1, M0
     e3a:	50 27       	eor	r21, r16
	eor T3, M0 
     e3c:	70 27       	eor	r23, r16
	mov r28, ST32
     e3e:	ce 2d       	mov	r28, r14
	ld  M0, Y
     e40:	08 81       	ld	r16, Y
	eor T1, M0
     e42:	50 27       	eor	r21, r16
	eor T2, M0 ;1, 3, 2, 1 완료
     e44:	60 27       	eor	r22, r16

	mov r30, ST03
     e46:	e3 2d       	mov	r30, r3
	ld  M0, Z
     e48:	00 81       	ld	r16, Z
	eor T0, M0
     e4a:	40 27       	eor	r20, r16
	eor T1, M0
     e4c:	50 27       	eor	r21, r16
	eor T2, M0 
     e4e:	60 27       	eor	r22, r16
	mov r28, ST03
     e50:	c3 2d       	mov	r28, r3
	ld  M0, Y
     e52:	08 81       	ld	r16, Y
	eor T2, M0
     e54:	60 27       	eor	r22, r16
	eor T3, M0 ;1, 1, 3, 2 완료
     e56:	70 27       	eor	r23, r16

	mov ST10, T0
     e58:	44 2e       	mov	r4, r20
	mov ST11, T1
     e5a:	55 2e       	mov	r5, r21
	mov ST03, M3
     e5c:	33 2e       	mov	r3, r19
	//! 2번째 열 완료

	//! 3번째 열 시작
	mov r30, ST20 
     e5e:	e8 2d       	mov	r30, r8
	ld  T0, Z 
     e60:	40 81       	ld	r20, Z
	mov T1, T0
     e62:	54 2f       	mov	r21, r20
	mov M3, T1 
     e64:	35 2f       	mov	r19, r21
	mov r28, ST20
     e66:	c8 2d       	mov	r28, r8
	ld  M0, Y
     e68:	08 81       	ld	r16, Y
	eor M3, M0 ; 2, 1, 1, 3 완료
     e6a:	30 27       	eor	r19, r16

	mov r30, ST31
     e6c:	ed 2d       	mov	r30, r13
	ld  r25, Z
     e6e:	90 81       	ld	r25, Z
	eor M0, r25
     e70:	09 27       	eor	r16, r25
	eor T1, r25
     e72:	59 27       	eor	r21, r25
	eor M3, r25
     e74:	39 27       	eor	r19, r25
	mov r28, ST31
     e76:	cd 2d       	mov	r28, r13
	ld  r25, Y
     e78:	98 81       	ld	r25, Y
	eor M0, r25
     e7a:	09 27       	eor	r16, r25
	eor T0, r25 ;3, 2, 2, 1 완료
     e7c:	49 27       	eor	r20, r25

	mov r30, ST02
     e7e:	e2 2d       	mov	r30, r2
	ld  r25, Z
     e80:	90 81       	ld	r25, Z
	eor M0, r25
     e82:	09 27       	eor	r16, r25
	eor T0, r25
     e84:	49 27       	eor	r20, r25
	eor M3, r25
     e86:	39 27       	eor	r19, r25
	mov r28, ST02
     e88:	c2 2d       	mov	r28, r2
	ld  r25, Y
     e8a:	98 81       	ld	r25, Y
	eor T0, r25
     e8c:	49 27       	eor	r20, r25
	eor T1, r25;1, 3, 2, 1 완료
     e8e:	59 27       	eor	r21, r25

	mov r30, ST13
     e90:	e7 2d       	mov	r30, r7
	ld  r25, Z
     e92:	90 81       	ld	r25, Z
	eor M0, r25
     e94:	09 27       	eor	r16, r25
	eor T0, r25
     e96:	49 27       	eor	r20, r25
	eor T1, r25 
     e98:	59 27       	eor	r21, r25
	mov r28, ST13
     e9a:	c7 2d       	mov	r28, r7
	ld  r25, Y
     e9c:	98 81       	ld	r25, Y
	eor T1, r25
     e9e:	59 27       	eor	r21, r25
	eor M3, r25 ;1, 1, 3, 2 완료
     ea0:	39 27       	eor	r19, r25

	mov ST20, M0
     ea2:	80 2e       	mov	r8, r16
	mov ST21, T0
     ea4:	94 2e       	mov	r9, r20
	mov ST22, T1
     ea6:	a5 2e       	mov	r10, r21
	mov ST13, T3
     ea8:	77 2e       	mov	r7, r23
	//! 3번째 열 완료



	//! 4번째 열 시작
	mov r30, ST30 
     eaa:	ec 2d       	mov	r30, r12
	ld  T1, Z 
     eac:	50 81       	ld	r21, Z
	mov T3, T1
     eae:	75 2f       	mov	r23, r21
	mov r25, T3 
     eb0:	97 2f       	mov	r25, r23
	mov r28, ST30
     eb2:	cc 2d       	mov	r28, r12
	ld  T0, Y
     eb4:	48 81       	ld	r20, Y
	eor r25, T0 ; 2, 1, 1, 3 완료
     eb6:	94 27       	eor	r25, r20

	mov r30, ST01
     eb8:	e1 2d       	mov	r30, r1
	ld  M0, Z
     eba:	00 81       	ld	r16, Z
	eor T0, M0
     ebc:	40 27       	eor	r20, r16
	eor T3, M0
     ebe:	70 27       	eor	r23, r16
	eor r25, M0 
     ec0:	90 27       	eor	r25, r16
	mov r28, ST01
     ec2:	c1 2d       	mov	r28, r1
	ld  M0, Y
     ec4:	08 81       	ld	r16, Y
	eor T0, M0
     ec6:	40 27       	eor	r20, r16
	eor T1, M0 ;3, 2, 2, 1 완료
     ec8:	50 27       	eor	r21, r16

	mov r30, ST12
     eca:	e6 2d       	mov	r30, r6
	ld  M0, Z
     ecc:	00 81       	ld	r16, Z
	eor T0, M0
     ece:	40 27       	eor	r20, r16
	eor T1, M0
     ed0:	50 27       	eor	r21, r16
	eor r25, M0 
     ed2:	90 27       	eor	r25, r16
	mov r28, ST12
     ed4:	c6 2d       	mov	r28, r6
	ld  M0, Y
     ed6:	08 81       	ld	r16, Y
	eor T1, M0
     ed8:	50 27       	eor	r21, r16
	eor T3, M0 ;1, 3, 2, 1 완료
     eda:	70 27       	eor	r23, r16

	mov r30, ST23
     edc:	eb 2d       	mov	r30, r11
	ld  M0, Z
     ede:	00 81       	ld	r16, Z
	eor T0, M0
     ee0:	40 27       	eor	r20, r16
	eor T1, M0
     ee2:	50 27       	eor	r21, r16
	eor T3, M0 
     ee4:	70 27       	eor	r23, r16
	mov r28, ST23
     ee6:	cb 2d       	mov	r28, r11
	ld  M0, Y
     ee8:	08 81       	ld	r16, Y
	eor T3, M0
     eea:	70 27       	eor	r23, r16
	eor r25, M0 ;1, 1, 3, 2 완료
     eec:	90 27       	eor	r25, r16

	mov ST30, T0
     eee:	c4 2e       	mov	r12, r20
	mov ST31, T1
     ef0:	d5 2e       	mov	r13, r21
	mov ST32, T3
     ef2:	e7 2e       	mov	r14, r23
	mov ST33, r25
     ef4:	f9 2e       	mov	r15, r25
	mov ST01, M1
     ef6:	11 2e       	mov	r1, r17
	mov ST02, M2
     ef8:	22 2e       	mov	r2, r18
	mov ST12, T2
     efa:	66 2e       	mov	r6, r22
	mov ST23, M3
     efc:	b3 2e       	mov	r11, r19
	.irp row, 0, 1, 2, 3
		.irp col, 0, 1, 2, 3
			ld r16, X+
			eor ST\row\col, r16
		.endr
	.endr
     efe:	0d 91       	ld	r16, X+
     f00:	00 26       	eor	r0, r16
     f02:	0d 91       	ld	r16, X+
     f04:	10 26       	eor	r1, r16
     f06:	0d 91       	ld	r16, X+
     f08:	20 26       	eor	r2, r16
     f0a:	0d 91       	ld	r16, X+
     f0c:	30 26       	eor	r3, r16
     f0e:	0d 91       	ld	r16, X+
     f10:	40 26       	eor	r4, r16
     f12:	0d 91       	ld	r16, X+
     f14:	50 26       	eor	r5, r16
     f16:	0d 91       	ld	r16, X+
     f18:	60 26       	eor	r6, r16
     f1a:	0d 91       	ld	r16, X+
     f1c:	70 26       	eor	r7, r16
     f1e:	0d 91       	ld	r16, X+
     f20:	80 26       	eor	r8, r16
     f22:	0d 91       	ld	r16, X+
     f24:	90 26       	eor	r9, r16
     f26:	0d 91       	ld	r16, X+
     f28:	a0 26       	eor	r10, r16
     f2a:	0d 91       	ld	r16, X+
     f2c:	b0 26       	eor	r11, r16
     f2e:	0d 91       	ld	r16, X+
     f30:	c0 26       	eor	r12, r16
     f32:	0d 91       	ld	r16, X+
     f34:	d0 26       	eor	r13, r16
     f36:	0d 91       	ld	r16, X+
     f38:	e0 26       	eor	r14, r16
     f3a:	0d 91       	ld	r16, X+
     f3c:	f0 26       	eor	r15, r16
	
	//9 Round------------------------------------------------------------------------------------------
	
	/* Shift Row and Subbyte , Mixcolumns */
	//! 1번째 열 시작
	mov r30, ST00 
     f3e:	e0 2d       	mov	r30, r0
	ld  M1, Z 
     f40:	10 81       	ld	r17, Z
	mov M2, M1
     f42:	21 2f       	mov	r18, r17
	mov M3, M2 
     f44:	32 2f       	mov	r19, r18
	mov r28, ST00
     f46:	c0 2d       	mov	r28, r0
	ld  M0, Y
     f48:	08 81       	ld	r16, Y
	eor M3, M0 ; 2, 1, 1, 3 완료
     f4a:	30 27       	eor	r19, r16

	mov r30, ST11
     f4c:	e5 2d       	mov	r30, r5
	ld  T0, Z
     f4e:	40 81       	ld	r20, Z
	eor M0, T0
     f50:	04 27       	eor	r16, r20
	eor M2, T0
     f52:	24 27       	eor	r18, r20
	eor M3, T0 
     f54:	34 27       	eor	r19, r20
	mov r28, ST11
     f56:	c5 2d       	mov	r28, r5
	ld  T0, Y
     f58:	48 81       	ld	r20, Y
	eor M0, T0
     f5a:	04 27       	eor	r16, r20
	eor M1, T0 ;3, 2, 2, 1 완료
     f5c:	14 27       	eor	r17, r20

	mov r30, ST22
     f5e:	ea 2d       	mov	r30, r10
	ld  T0, Z
     f60:	40 81       	ld	r20, Z
	eor M0, T0
     f62:	04 27       	eor	r16, r20
	eor M1, T0
     f64:	14 27       	eor	r17, r20
	eor M3, T0
     f66:	34 27       	eor	r19, r20
	mov r28, ST22
     f68:	ca 2d       	mov	r28, r10
	ld  T0, Y
     f6a:	48 81       	ld	r20, Y
	eor M1, T0
     f6c:	14 27       	eor	r17, r20
	eor M2, T0 ;1, 3, 2, 1 완료
     f6e:	24 27       	eor	r18, r20

	mov r30, ST33
     f70:	ef 2d       	mov	r30, r15
	ld  T0, Z
     f72:	40 81       	ld	r20, Z
	eor M0, T0
     f74:	04 27       	eor	r16, r20
	eor M1, T0
     f76:	14 27       	eor	r17, r20
	eor M2, T0 
     f78:	24 27       	eor	r18, r20
	mov r28, ST33
     f7a:	cf 2d       	mov	r28, r15
	ld  T0, Y
     f7c:	48 81       	ld	r20, Y
	eor M2, T0
     f7e:	24 27       	eor	r18, r20
	eor M3, T0 ;1, 1, 3, 2 완료
     f80:	34 27       	eor	r19, r20

	mov ST00, M0
     f82:	00 2e       	mov	r0, r16
	//! 1번째 열 완료

	//! 2번째 열 시작
	mov r30, ST10 
     f84:	e4 2d       	mov	r30, r4
	ld  T1, Z 
     f86:	50 81       	ld	r21, Z
	mov T2, T1
     f88:	65 2f       	mov	r22, r21
	mov T3, T2 
     f8a:	76 2f       	mov	r23, r22
	mov r28, ST10
     f8c:	c4 2d       	mov	r28, r4
	ld  T0, Y
     f8e:	48 81       	ld	r20, Y
	eor T3, T0 ; 2, 1, 1, 3 완료
     f90:	74 27       	eor	r23, r20

	mov r30, ST21
     f92:	e9 2d       	mov	r30, r9
	ld  M0, Z
     f94:	00 81       	ld	r16, Z
	eor T0, M0
     f96:	40 27       	eor	r20, r16
	eor T2, M0
     f98:	60 27       	eor	r22, r16
	eor T3, M0 
     f9a:	70 27       	eor	r23, r16
	mov r28, ST21
     f9c:	c9 2d       	mov	r28, r9
	ld  M0, Y
     f9e:	08 81       	ld	r16, Y
	eor T0, M0
     fa0:	40 27       	eor	r20, r16
	eor T1, M0 ;3, 2, 2, 1 완료
     fa2:	50 27       	eor	r21, r16

	mov r30, ST32
     fa4:	ee 2d       	mov	r30, r14
	ld  M0, Z
     fa6:	00 81       	ld	r16, Z
	eor T0, M0
     fa8:	40 27       	eor	r20, r16
	eor T1, M0
     faa:	50 27       	eor	r21, r16
	eor T3, M0 
     fac:	70 27       	eor	r23, r16
	mov r28, ST32
     fae:	ce 2d       	mov	r28, r14
	ld  M0, Y
     fb0:	08 81       	ld	r16, Y
	eor T1, M0
     fb2:	50 27       	eor	r21, r16
	eor T2, M0 ;1, 3, 2, 1 완료
     fb4:	60 27       	eor	r22, r16

	mov r30, ST03
     fb6:	e3 2d       	mov	r30, r3
	ld  M0, Z
     fb8:	00 81       	ld	r16, Z
	eor T0, M0
     fba:	40 27       	eor	r20, r16
	eor T1, M0
     fbc:	50 27       	eor	r21, r16
	eor T2, M0 
     fbe:	60 27       	eor	r22, r16
	mov r28, ST03
     fc0:	c3 2d       	mov	r28, r3
	ld  M0, Y
     fc2:	08 81       	ld	r16, Y
	eor T2, M0
     fc4:	60 27       	eor	r22, r16
	eor T3, M0 ;1, 1, 3, 2 완료
     fc6:	70 27       	eor	r23, r16

	mov ST10, T0
     fc8:	44 2e       	mov	r4, r20
	mov ST11, T1
     fca:	55 2e       	mov	r5, r21
	mov ST03, M3
     fcc:	33 2e       	mov	r3, r19
	//! 2번째 열 완료

	//! 3번째 열 시작
	mov r30, ST20 
     fce:	e8 2d       	mov	r30, r8
	ld  T0, Z 
     fd0:	40 81       	ld	r20, Z
	mov T1, T0
     fd2:	54 2f       	mov	r21, r20
	mov M3, T1 
     fd4:	35 2f       	mov	r19, r21
	mov r28, ST20
     fd6:	c8 2d       	mov	r28, r8
	ld  M0, Y
     fd8:	08 81       	ld	r16, Y
	eor M3, M0 ; 2, 1, 1, 3 완료
     fda:	30 27       	eor	r19, r16

	mov r30, ST31
     fdc:	ed 2d       	mov	r30, r13
	ld  r25, Z
     fde:	90 81       	ld	r25, Z
	eor M0, r25
     fe0:	09 27       	eor	r16, r25
	eor T1, r25
     fe2:	59 27       	eor	r21, r25
	eor M3, r25
     fe4:	39 27       	eor	r19, r25
	mov r28, ST31
     fe6:	cd 2d       	mov	r28, r13
	ld  r25, Y
     fe8:	98 81       	ld	r25, Y
	eor M0, r25
     fea:	09 27       	eor	r16, r25
	eor T0, r25 ;3, 2, 2, 1 완료
     fec:	49 27       	eor	r20, r25

	mov r30, ST02
     fee:	e2 2d       	mov	r30, r2
	ld  r25, Z
     ff0:	90 81       	ld	r25, Z
	eor M0, r25
     ff2:	09 27       	eor	r16, r25
	eor T0, r25
     ff4:	49 27       	eor	r20, r25
	eor M3, r25
     ff6:	39 27       	eor	r19, r25
	mov r28, ST02
     ff8:	c2 2d       	mov	r28, r2
	ld  r25, Y
     ffa:	98 81       	ld	r25, Y
	eor T0, r25
     ffc:	49 27       	eor	r20, r25
	eor T1, r25;1, 3, 2, 1 완료
     ffe:	59 27       	eor	r21, r25

	mov r30, ST13
    1000:	e7 2d       	mov	r30, r7
	ld  r25, Z
    1002:	90 81       	ld	r25, Z
	eor M0, r25
    1004:	09 27       	eor	r16, r25
	eor T0, r25
    1006:	49 27       	eor	r20, r25
	eor T1, r25 
    1008:	59 27       	eor	r21, r25
	mov r28, ST13
    100a:	c7 2d       	mov	r28, r7
	ld  r25, Y
    100c:	98 81       	ld	r25, Y
	eor T1, r25
    100e:	59 27       	eor	r21, r25
	eor M3, r25 ;1, 1, 3, 2 완료
    1010:	39 27       	eor	r19, r25

	mov ST20, M0
    1012:	80 2e       	mov	r8, r16
	mov ST21, T0
    1014:	94 2e       	mov	r9, r20
	mov ST22, T1
    1016:	a5 2e       	mov	r10, r21
	mov ST13, T3
    1018:	77 2e       	mov	r7, r23
	//! 3번째 열 완료



	//! 4번째 열 시작
	mov r30, ST30 
    101a:	ec 2d       	mov	r30, r12
	ld  T1, Z 
    101c:	50 81       	ld	r21, Z
	mov T3, T1
    101e:	75 2f       	mov	r23, r21
	mov r25, T3 
    1020:	97 2f       	mov	r25, r23
	mov r28, ST30
    1022:	cc 2d       	mov	r28, r12
	ld  T0, Y
    1024:	48 81       	ld	r20, Y
	eor r25, T0 ; 2, 1, 1, 3 완료
    1026:	94 27       	eor	r25, r20

	mov r30, ST01
    1028:	e1 2d       	mov	r30, r1
	ld  M0, Z
    102a:	00 81       	ld	r16, Z
	eor T0, M0
    102c:	40 27       	eor	r20, r16
	eor T3, M0
    102e:	70 27       	eor	r23, r16
	eor r25, M0 
    1030:	90 27       	eor	r25, r16
	mov r28, ST01
    1032:	c1 2d       	mov	r28, r1
	ld  M0, Y
    1034:	08 81       	ld	r16, Y
	eor T0, M0
    1036:	40 27       	eor	r20, r16
	eor T1, M0 ;3, 2, 2, 1 완료
    1038:	50 27       	eor	r21, r16

	mov r30, ST12
    103a:	e6 2d       	mov	r30, r6
	ld  M0, Z
    103c:	00 81       	ld	r16, Z
	eor T0, M0
    103e:	40 27       	eor	r20, r16
	eor T1, M0
    1040:	50 27       	eor	r21, r16
	eor r25, M0 
    1042:	90 27       	eor	r25, r16
	mov r28, ST12
    1044:	c6 2d       	mov	r28, r6
	ld  M0, Y
    1046:	08 81       	ld	r16, Y
	eor T1, M0
    1048:	50 27       	eor	r21, r16
	eor T3, M0 ;1, 3, 2, 1 완료
    104a:	70 27       	eor	r23, r16

	mov r30, ST23
    104c:	eb 2d       	mov	r30, r11
	ld  M0, Z
    104e:	00 81       	ld	r16, Z
	eor T0, M0
    1050:	40 27       	eor	r20, r16
	eor T1, M0
    1052:	50 27       	eor	r21, r16
	eor T3, M0 
    1054:	70 27       	eor	r23, r16
	mov r28, ST23
    1056:	cb 2d       	mov	r28, r11
	ld  M0, Y
    1058:	08 81       	ld	r16, Y
	eor T3, M0
    105a:	70 27       	eor	r23, r16
	eor r25, M0 ;1, 1, 3, 2 완료
    105c:	90 27       	eor	r25, r16

	mov ST30, T0
    105e:	c4 2e       	mov	r12, r20
	mov ST31, T1
    1060:	d5 2e       	mov	r13, r21
	mov ST32, T3
    1062:	e7 2e       	mov	r14, r23
	mov ST33, r25
    1064:	f9 2e       	mov	r15, r25
	mov ST01, M1
    1066:	11 2e       	mov	r1, r17
	mov ST02, M2
    1068:	22 2e       	mov	r2, r18
	mov ST12, T2
    106a:	66 2e       	mov	r6, r22
	mov ST23, M3
    106c:	b3 2e       	mov	r11, r19
	.irp row, 0, 1, 2, 3
		.irp col, 0, 1, 2, 3
			ld r16, X+
			eor ST\row\col, r16
		.endr
	.endr
    106e:	0d 91       	ld	r16, X+
    1070:	00 26       	eor	r0, r16
    1072:	0d 91       	ld	r16, X+
    1074:	10 26       	eor	r1, r16
    1076:	0d 91       	ld	r16, X+
    1078:	20 26       	eor	r2, r16
    107a:	0d 91       	ld	r16, X+
    107c:	30 26       	eor	r3, r16
    107e:	0d 91       	ld	r16, X+
    1080:	40 26       	eor	r4, r16
    1082:	0d 91       	ld	r16, X+
    1084:	50 26       	eor	r5, r16
    1086:	0d 91       	ld	r16, X+
    1088:	60 26       	eor	r6, r16
    108a:	0d 91       	ld	r16, X+
    108c:	70 26       	eor	r7, r16
    108e:	0d 91       	ld	r16, X+
    1090:	80 26       	eor	r8, r16
    1092:	0d 91       	ld	r16, X+
    1094:	90 26       	eor	r9, r16
    1096:	0d 91       	ld	r16, X+
    1098:	a0 26       	eor	r10, r16
    109a:	0d 91       	ld	r16, X+
    109c:	b0 26       	eor	r11, r16
    109e:	0d 91       	ld	r16, X+
    10a0:	c0 26       	eor	r12, r16
    10a2:	0d 91       	ld	r16, X+
    10a4:	d0 26       	eor	r13, r16
    10a6:	0d 91       	ld	r16, X+
    10a8:	e0 26       	eor	r14, r16
    10aa:	0d 91       	ld	r16, X+
    10ac:	f0 26       	eor	r15, r16
	


	// 10 Round--------------------------------------------------------------------------------------------
	// Shift Row + Subbyte
	mov r30, ST00
    10ae:	e0 2d       	mov	r30, r0
	ld ST00, Z
    10b0:	00 80       	ld	r0, Z
	mov r30, ST10
    10b2:	e4 2d       	mov	r30, r4
	ld ST10, Z
    10b4:	40 80       	ld	r4, Z
	mov r30, ST20
    10b6:	e8 2d       	mov	r30, r8
	ld ST20, Z
    10b8:	80 80       	ld	r8, Z
	mov r30, ST30
    10ba:	ec 2d       	mov	r30, r12
	ld ST30, Z
    10bc:	c0 80       	ld	r12, Z

	mov r30, ST01
    10be:	e1 2d       	mov	r30, r1
	ld T0, Z
    10c0:	40 81       	ld	r20, Z
	mov r30, ST11
    10c2:	e5 2d       	mov	r30, r5
	ld ST01, Z
    10c4:	10 80       	ld	r1, Z
	mov r30, ST21
    10c6:	e9 2d       	mov	r30, r9
	ld ST11, Z
    10c8:	50 80       	ld	r5, Z
	mov r30, ST31
    10ca:	ed 2d       	mov	r30, r13
	ld ST21, Z
    10cc:	90 80       	ld	r9, Z
	mov ST31, T0
    10ce:	d4 2e       	mov	r13, r20

	mov r30, ST02
    10d0:	e2 2d       	mov	r30, r2
	ld T0, Z
    10d2:	40 81       	ld	r20, Z
	mov r30, ST12
    10d4:	e6 2d       	mov	r30, r6
	ld T1, Z
    10d6:	50 81       	ld	r21, Z
	mov r30, ST22
    10d8:	ea 2d       	mov	r30, r10
	ld ST02, Z
    10da:	20 80       	ld	r2, Z
	mov r30, ST32
    10dc:	ee 2d       	mov	r30, r14
	ld ST12, Z
    10de:	60 80       	ld	r6, Z
	mov ST22, T0
    10e0:	a4 2e       	mov	r10, r20
	mov ST32, T1
    10e2:	e5 2e       	mov	r14, r21

	mov r30, ST03
    10e4:	e3 2d       	mov	r30, r3
	ld T0, Z
    10e6:	40 81       	ld	r20, Z
	mov r30, ST33
    10e8:	ef 2d       	mov	r30, r15
	ld  ST03, Z
    10ea:	30 80       	ld	r3, Z
	mov r30, ST23
    10ec:	eb 2d       	mov	r30, r11
	ld ST33, Z
    10ee:	f0 80       	ld	r15, Z
	mov r30, ST13
    10f0:	e7 2d       	mov	r30, r7
	ld ST23, Z
    10f2:	b0 80       	ld	r11, Z
	mov ST13, T0
    10f4:	74 2e       	mov	r7, r20
	.irp row, 0, 1, 2, 3
		.irp col, 0, 1, 2, 3
			ld r16, X+
			eor ST\row\col, r16
		.endr
	.endr
    10f6:	0d 91       	ld	r16, X+
    10f8:	00 26       	eor	r0, r16
    10fa:	0d 91       	ld	r16, X+
    10fc:	10 26       	eor	r1, r16
    10fe:	0d 91       	ld	r16, X+
    1100:	20 26       	eor	r2, r16
    1102:	0d 91       	ld	r16, X+
    1104:	30 26       	eor	r3, r16
    1106:	0d 91       	ld	r16, X+
    1108:	40 26       	eor	r4, r16
    110a:	0d 91       	ld	r16, X+
    110c:	50 26       	eor	r5, r16
    110e:	0d 91       	ld	r16, X+
    1110:	60 26       	eor	r6, r16
    1112:	0d 91       	ld	r16, X+
    1114:	70 26       	eor	r7, r16
    1116:	0d 91       	ld	r16, X+
    1118:	80 26       	eor	r8, r16
    111a:	0d 91       	ld	r16, X+
    111c:	90 26       	eor	r9, r16
    111e:	0d 91       	ld	r16, X+
    1120:	a0 26       	eor	r10, r16
    1122:	0d 91       	ld	r16, X+
    1124:	b0 26       	eor	r11, r16
    1126:	0d 91       	ld	r16, X+
    1128:	c0 26       	eor	r12, r16
    112a:	0d 91       	ld	r16, X+
    112c:	d0 26       	eor	r13, r16
    112e:	0d 91       	ld	r16, X+
    1130:	e0 26       	eor	r14, r16
    1132:	0d 91       	ld	r16, X+
    1134:	f0 26       	eor	r15, r16
	pop r21
    1136:	5f 91       	pop	r21
	pop r20
    1138:	4f 91       	pop	r20
	pop r27
    113a:	bf 91       	pop	r27
	pop r26
    113c:	af 91       	pop	r26
	pop r31
    113e:	ff 91       	pop	r31
	pop r30
    1140:	ef 91       	pop	r30
	movw r16, r30
    1142:	8f 01       	movw	r16, r30

	.irp row, 0, 1, 2, 3
			.irp col, 0, 1, 2, 3
			st Z+, ST\row\col
		.endr
	.endr
    1144:	01 92       	st	Z+, r0
    1146:	11 92       	st	Z+, r1
    1148:	21 92       	st	Z+, r2
    114a:	31 92       	st	Z+, r3
    114c:	41 92       	st	Z+, r4
    114e:	51 92       	st	Z+, r5
    1150:	61 92       	st	Z+, r6
    1152:	71 92       	st	Z+, r7
    1154:	81 92       	st	Z+, r8
    1156:	91 92       	st	Z+, r9
    1158:	a1 92       	st	Z+, r10
    115a:	b1 92       	st	Z+, r11
    115c:	c1 92       	st	Z+, r12
    115e:	d1 92       	st	Z+, r13
    1160:	e1 92       	st	Z+, r14
    1162:	f1 92       	st	Z+, r15
	movw r30, r16
    1164:	f8 01       	movw	r30, r16
	ld r16, Z
    1166:	00 81       	ld	r16, Z
	inc r16
    1168:	03 95       	inc	r16
	st Z, r16
    116a:	00 83       	st	Z, r16
	movw r16, r30
    116c:	8f 01       	movw	r16, r30

	.irp row, 0, 1, 2, 3
			.irp col, 0, 1, 2, 3
			ld ST\row\col ,Z+
		.endr
	.endr
    116e:	01 90       	ld	r0, Z+
    1170:	11 90       	ld	r1, Z+
    1172:	21 90       	ld	r2, Z+
    1174:	31 90       	ld	r3, Z+
    1176:	41 90       	ld	r4, Z+
    1178:	51 90       	ld	r5, Z+
    117a:	61 90       	ld	r6, Z+
    117c:	71 90       	ld	r7, Z+
    117e:	81 90       	ld	r8, Z+
    1180:	91 90       	ld	r9, Z+
    1182:	a1 90       	ld	r10, Z+
    1184:	b1 90       	ld	r11, Z+
    1186:	c1 90       	ld	r12, Z+
    1188:	d1 90       	ld	r13, Z+
    118a:	e1 90       	ld	r14, Z+
    118c:	f1 90       	ld	r15, Z+
	movw r30, r16
    118e:	f8 01       	movw	r30, r16

	push r30
    1190:	ef 93       	push	r30
	push r31
    1192:	ff 93       	push	r31
	push r26
    1194:	af 93       	push	r26
	push r27
    1196:	bf 93       	push	r27
	push r20
    1198:	4f 93       	push	r20
	push r21
    119a:	5f 93       	push	r21

	ldi r16, 12
    119c:	0c e0       	ldi	r16, 0x0C	; 12
	add r26, r16
    119e:	a0 0f       	add	r26, r16

	ld r16, X+
    11a0:	0d 91       	ld	r16, X+
	eor ST30, r16
    11a2:	c0 26       	eor	r12, r16
	ld r16, X+
    11a4:	0d 91       	ld	r16, X+
	eor ST31, r16
    11a6:	d0 26       	eor	r13, r16
	ld r16, X+
    11a8:	0d 91       	ld	r16, X+
	eor ST32, r16
    11aa:	e0 26       	eor	r14, r16
	ld r16, X+
    11ac:	0d 91       	ld	r16, X+
	eor ST33, r16
    11ae:	f0 26       	eor	r15, r16
	
//------------------------------------------------------------------------------------------------------------------------------------------------------------------------------------------------------------------------------------------------------------------------------------------------------------------------------------------------------------------------------------------------------------------------------------------------------------------------------------------------------------------------------------------------------------------------------------------------------------------------------------------------------------------------------------------------------------------------------------------------------------------------------------------------------------------------------------------------------------------------------------------------------
	//1 Round------------------------------------------------------------------------------------------
	/* Shift Row and Subbyte , Mixcolumns */
	//! 1번째 열 시작
	ldi r31, hi8(SBOX_TABLE)	
    11b0:	f1 e0       	ldi	r31, 0x01	; 1
	mov r30, ST00 
    11b2:	e0 2d       	mov	r30, r0
	ld  M1, Z 
    11b4:	10 81       	ld	r17, Z
	mov M2, M1
    11b6:	21 2f       	mov	r18, r17
	mov M3, M2 
    11b8:	32 2f       	mov	r19, r18
	mov r28, ST00
    11ba:	c0 2d       	mov	r28, r0
	ld  M0, Y
    11bc:	08 81       	ld	r16, Y
	eor M3, M0 ; 2, 1, 1, 3 완료
    11be:	30 27       	eor	r19, r16

	mov r30, ST11
    11c0:	e5 2d       	mov	r30, r5
	ld  T0, Z
    11c2:	40 81       	ld	r20, Z
	eor M0, T0
    11c4:	04 27       	eor	r16, r20
	eor M2, T0
    11c6:	24 27       	eor	r18, r20
	eor M3, T0 
    11c8:	34 27       	eor	r19, r20
	mov r28, ST11
    11ca:	c5 2d       	mov	r28, r5
	ld  T0, Y
    11cc:	48 81       	ld	r20, Y
	eor M0, T0
    11ce:	04 27       	eor	r16, r20
	eor M1, T0 ;3, 2, 2, 1 완료
    11d0:	14 27       	eor	r17, r20

	mov r30, ST22
    11d2:	ea 2d       	mov	r30, r10
	ld  T0, Z
    11d4:	40 81       	ld	r20, Z
	eor M0, T0
    11d6:	04 27       	eor	r16, r20
	eor M1, T0
    11d8:	14 27       	eor	r17, r20
	eor M3, T0
    11da:	34 27       	eor	r19, r20
	mov r28, ST22
    11dc:	ca 2d       	mov	r28, r10
	ld  T0, Y
    11de:	48 81       	ld	r20, Y
	eor M1, T0
    11e0:	14 27       	eor	r17, r20
	eor M2, T0 ;1, 3, 2, 1 완료
    11e2:	24 27       	eor	r18, r20

	mov r30, ST33
    11e4:	ef 2d       	mov	r30, r15
	ld  T0, Z
    11e6:	40 81       	ld	r20, Z
	eor M0, T0
    11e8:	04 27       	eor	r16, r20
	eor M1, T0
    11ea:	14 27       	eor	r17, r20
	eor M2, T0 
    11ec:	24 27       	eor	r18, r20
	mov r28, ST33
    11ee:	cf 2d       	mov	r28, r15
	ld  T0, Y
    11f0:	48 81       	ld	r20, Y
	eor M2, T0
    11f2:	24 27       	eor	r18, r20
	eor M3, T0 ;1, 1, 3, 2 완료
    11f4:	34 27       	eor	r19, r20

	mov ST00, M0
    11f6:	00 2e       	mov	r0, r16
	mov ST01, M1
    11f8:	11 2e       	mov	r1, r17
	mov ST02, M2
    11fa:	22 2e       	mov	r2, r18
	mov ST03, M3
    11fc:	33 2e       	mov	r3, r19

	ld r16, X+
    11fe:	0d 91       	ld	r16, X+
	eor ST00, r16
    1200:	00 26       	eor	r0, r16
	ld r16, X+
    1202:	0d 91       	ld	r16, X+
	eor ST01, r16
    1204:	10 26       	eor	r1, r16
	ld r16, X+
    1206:	0d 91       	ld	r16, X+
	eor ST02, r16
    1208:	20 26       	eor	r2, r16
	ld r16, X+
    120a:	0d 91       	ld	r16, X+
	eor ST03, r16
    120c:	30 26       	eor	r3, r16

	pop r31
    120e:	ff 91       	pop	r31
	pop r30
    1210:	ef 91       	pop	r30
	movw r16, r30
    1212:	8f 01       	movw	r16, r30
	
	ld ST10, Z+
    1214:	41 90       	ld	r4, Z+
	ld ST11, Z+
    1216:	51 90       	ld	r5, Z+
	ld ST12, Z+
    1218:	61 90       	ld	r6, Z+
	ld ST13, Z+
    121a:	71 90       	ld	r7, Z+
	ld ST20, Z+
    121c:	81 90       	ld	r8, Z+
	ld ST21, Z+
    121e:	91 90       	ld	r9, Z+
	ld ST22, Z+
    1220:	a1 90       	ld	r10, Z+
	ld ST23, Z+
    1222:	b1 90       	ld	r11, Z+
	ld ST30, Z+
    1224:	c1 90       	ld	r12, Z+
	ld ST31, Z+
    1226:	d1 90       	ld	r13, Z+
	ld ST32, Z+
    1228:	e1 90       	ld	r14, Z+
	ld ST33, Z+
    122a:	f1 90       	ld	r15, Z+
	pop r16
    122c:	0f 91       	pop	r16
	pop r17
    122e:	1f 91       	pop	r17
	ldi r31, hi8(SBOX_TABLE)	
    1230:	f1 e0       	ldi	r31, 0x01	; 1

	//2 Round------------------------------------------------------------------------------------------
	
	/* Shift Row and Subbyte , Mixcolumns */
	//! 1번째 열 시작
	mov r30, ST00 
    1232:	e0 2d       	mov	r30, r0
	ld  M1, Z 
    1234:	10 81       	ld	r17, Z
	mov M2, M1
    1236:	21 2f       	mov	r18, r17
	mov M3, M2 
    1238:	32 2f       	mov	r19, r18
	mov r28, ST00
    123a:	c0 2d       	mov	r28, r0
	ld  M0, Y
    123c:	08 81       	ld	r16, Y
	eor M3, M0 ; 2, 1, 1, 3 완료
    123e:	30 27       	eor	r19, r16

	mov r30, ST11
    1240:	e5 2d       	mov	r30, r5
	ld  T0, Z
    1242:	40 81       	ld	r20, Z
	eor M0, T0
    1244:	04 27       	eor	r16, r20
	eor M2, T0
    1246:	24 27       	eor	r18, r20
	eor M3, T0 
    1248:	34 27       	eor	r19, r20
	mov r28, ST11
    124a:	c5 2d       	mov	r28, r5
	ld  T0, Y
    124c:	48 81       	ld	r20, Y
	eor M0, T0
    124e:	04 27       	eor	r16, r20
	eor M1, T0 ;3, 2, 2, 1 완료
    1250:	14 27       	eor	r17, r20

	mov r30, ST22
    1252:	ea 2d       	mov	r30, r10
	ld  T0, Z
    1254:	40 81       	ld	r20, Z
	eor M0, T0
    1256:	04 27       	eor	r16, r20
	eor M1, T0
    1258:	14 27       	eor	r17, r20
	eor M3, T0
    125a:	34 27       	eor	r19, r20
	mov r28, ST22
    125c:	ca 2d       	mov	r28, r10
	ld  T0, Y
    125e:	48 81       	ld	r20, Y
	eor M1, T0
    1260:	14 27       	eor	r17, r20
	eor M2, T0 ;1, 3, 2, 1 완료
    1262:	24 27       	eor	r18, r20

	mov r30, ST33
    1264:	ef 2d       	mov	r30, r15
	ld  T0, Z
    1266:	40 81       	ld	r20, Z
	eor M0, T0
    1268:	04 27       	eor	r16, r20
	eor M1, T0
    126a:	14 27       	eor	r17, r20
	eor M2, T0 
    126c:	24 27       	eor	r18, r20
	mov r28, ST33
    126e:	cf 2d       	mov	r28, r15
	ld  T0, Y
    1270:	48 81       	ld	r20, Y
	eor M2, T0
    1272:	24 27       	eor	r18, r20
	eor M3, T0 ;1, 1, 3, 2 완료
    1274:	34 27       	eor	r19, r20

	mov ST00, M0
    1276:	00 2e       	mov	r0, r16
	//! 1번째 열 완료

	//! 2번째 열 시작
	mov r30, ST10 
    1278:	e4 2d       	mov	r30, r4
	ld  T1, Z 
    127a:	50 81       	ld	r21, Z
	mov T2, T1
    127c:	65 2f       	mov	r22, r21
	mov T3, T2 
    127e:	76 2f       	mov	r23, r22
	mov r28, ST10
    1280:	c4 2d       	mov	r28, r4
	ld  T0, Y
    1282:	48 81       	ld	r20, Y
	eor T3, T0 ; 2, 1, 1, 3 완료
    1284:	74 27       	eor	r23, r20

	mov r30, ST21
    1286:	e9 2d       	mov	r30, r9
	ld  M0, Z
    1288:	00 81       	ld	r16, Z
	eor T0, M0
    128a:	40 27       	eor	r20, r16
	eor T2, M0
    128c:	60 27       	eor	r22, r16
	eor T3, M0 
    128e:	70 27       	eor	r23, r16
	mov r28, ST21
    1290:	c9 2d       	mov	r28, r9
	ld  M0, Y
    1292:	08 81       	ld	r16, Y
	eor T0, M0
    1294:	40 27       	eor	r20, r16
	eor T1, M0 ;3, 2, 2, 1 완료
    1296:	50 27       	eor	r21, r16

	mov r30, ST32
    1298:	ee 2d       	mov	r30, r14
	ld  M0, Z
    129a:	00 81       	ld	r16, Z
	eor T0, M0
    129c:	40 27       	eor	r20, r16
	eor T1, M0
    129e:	50 27       	eor	r21, r16
	eor T3, M0 
    12a0:	70 27       	eor	r23, r16
	mov r28, ST32
    12a2:	ce 2d       	mov	r28, r14
	ld  M0, Y
    12a4:	08 81       	ld	r16, Y
	eor T1, M0
    12a6:	50 27       	eor	r21, r16
	eor T2, M0 ;1, 3, 2, 1 완료
    12a8:	60 27       	eor	r22, r16

	mov r30, ST03
    12aa:	e3 2d       	mov	r30, r3
	ld  M0, Z
    12ac:	00 81       	ld	r16, Z
	eor T0, M0
    12ae:	40 27       	eor	r20, r16
	eor T1, M0
    12b0:	50 27       	eor	r21, r16
	eor T2, M0 
    12b2:	60 27       	eor	r22, r16
	mov r28, ST03
    12b4:	c3 2d       	mov	r28, r3
	ld  M0, Y
    12b6:	08 81       	ld	r16, Y
	eor T2, M0
    12b8:	60 27       	eor	r22, r16
	eor T3, M0 ;1, 1, 3, 2 완료
    12ba:	70 27       	eor	r23, r16

	mov ST10, T0
    12bc:	44 2e       	mov	r4, r20
	mov ST11, T1
    12be:	55 2e       	mov	r5, r21
	mov ST03, M3
    12c0:	33 2e       	mov	r3, r19
	//! 2번째 열 완료

	//! 3번째 열 시작
	mov r30, ST20 
    12c2:	e8 2d       	mov	r30, r8
	ld  T0, Z 
    12c4:	40 81       	ld	r20, Z
	mov T1, T0
    12c6:	54 2f       	mov	r21, r20
	mov M3, T1 
    12c8:	35 2f       	mov	r19, r21
	mov r28, ST20
    12ca:	c8 2d       	mov	r28, r8
	ld  M0, Y
    12cc:	08 81       	ld	r16, Y
	eor M3, M0 ; 2, 1, 1, 3 완료
    12ce:	30 27       	eor	r19, r16

	mov r30, ST31
    12d0:	ed 2d       	mov	r30, r13
	ld  r25, Z
    12d2:	90 81       	ld	r25, Z
	eor M0, r25
    12d4:	09 27       	eor	r16, r25
	eor T1, r25
    12d6:	59 27       	eor	r21, r25
	eor M3, r25
    12d8:	39 27       	eor	r19, r25
	mov r28, ST31
    12da:	cd 2d       	mov	r28, r13
	ld  r25, Y
    12dc:	98 81       	ld	r25, Y
	eor M0, r25
    12de:	09 27       	eor	r16, r25
	eor T0, r25 ;3, 2, 2, 1 완료
    12e0:	49 27       	eor	r20, r25

	mov r30, ST02
    12e2:	e2 2d       	mov	r30, r2
	ld  r25, Z
    12e4:	90 81       	ld	r25, Z
	eor M0, r25
    12e6:	09 27       	eor	r16, r25
	eor T0, r25
    12e8:	49 27       	eor	r20, r25
	eor M3, r25
    12ea:	39 27       	eor	r19, r25
	mov r28, ST02
    12ec:	c2 2d       	mov	r28, r2
	ld  r25, Y
    12ee:	98 81       	ld	r25, Y
	eor T0, r25
    12f0:	49 27       	eor	r20, r25
	eor T1, r25;1, 3, 2, 1 완료
    12f2:	59 27       	eor	r21, r25

	mov r30, ST13
    12f4:	e7 2d       	mov	r30, r7
	ld  r25, Z
    12f6:	90 81       	ld	r25, Z
	eor M0, r25
    12f8:	09 27       	eor	r16, r25
	eor T0, r25
    12fa:	49 27       	eor	r20, r25
	eor T1, r25 
    12fc:	59 27       	eor	r21, r25
	mov r28, ST13
    12fe:	c7 2d       	mov	r28, r7
	ld  r25, Y
    1300:	98 81       	ld	r25, Y
	eor T1, r25
    1302:	59 27       	eor	r21, r25
	eor M3, r25 ;1, 1, 3, 2 완료
    1304:	39 27       	eor	r19, r25

	mov ST20, M0
    1306:	80 2e       	mov	r8, r16
	mov ST21, T0
    1308:	94 2e       	mov	r9, r20
	mov ST22, T1
    130a:	a5 2e       	mov	r10, r21
	mov ST13, T3
    130c:	77 2e       	mov	r7, r23
	//! 3번째 열 완료



	//! 4번째 열 시작
	mov r30, ST30 
    130e:	ec 2d       	mov	r30, r12
	ld  T1, Z 
    1310:	50 81       	ld	r21, Z
	mov T3, T1
    1312:	75 2f       	mov	r23, r21
	mov r25, T3 
    1314:	97 2f       	mov	r25, r23
	mov r28, ST30
    1316:	cc 2d       	mov	r28, r12
	ld  T0, Y
    1318:	48 81       	ld	r20, Y
	eor r25, T0 ; 2, 1, 1, 3 완료
    131a:	94 27       	eor	r25, r20

	mov r30, ST01
    131c:	e1 2d       	mov	r30, r1
	ld  M0, Z
    131e:	00 81       	ld	r16, Z
	eor T0, M0
    1320:	40 27       	eor	r20, r16
	eor T3, M0
    1322:	70 27       	eor	r23, r16
	eor r25, M0 
    1324:	90 27       	eor	r25, r16
	mov r28, ST01
    1326:	c1 2d       	mov	r28, r1
	ld  M0, Y
    1328:	08 81       	ld	r16, Y
	eor T0, M0
    132a:	40 27       	eor	r20, r16
	eor T1, M0 ;3, 2, 2, 1 완료
    132c:	50 27       	eor	r21, r16

	mov r30, ST12
    132e:	e6 2d       	mov	r30, r6
	ld  M0, Z
    1330:	00 81       	ld	r16, Z
	eor T0, M0
    1332:	40 27       	eor	r20, r16
	eor T1, M0
    1334:	50 27       	eor	r21, r16
	eor r25, M0 
    1336:	90 27       	eor	r25, r16
	mov r28, ST12
    1338:	c6 2d       	mov	r28, r6
	ld  M0, Y
    133a:	08 81       	ld	r16, Y
	eor T1, M0
    133c:	50 27       	eor	r21, r16
	eor T3, M0 ;1, 3, 2, 1 완료
    133e:	70 27       	eor	r23, r16

	mov r30, ST23
    1340:	eb 2d       	mov	r30, r11
	ld  M0, Z
    1342:	00 81       	ld	r16, Z
	eor T0, M0
    1344:	40 27       	eor	r20, r16
	eor T1, M0
    1346:	50 27       	eor	r21, r16
	eor T3, M0 
    1348:	70 27       	eor	r23, r16
	mov r28, ST23
    134a:	cb 2d       	mov	r28, r11
	ld  M0, Y
    134c:	08 81       	ld	r16, Y
	eor T3, M0
    134e:	70 27       	eor	r23, r16
	eor r25, M0 ;1, 1, 3, 2 완료
    1350:	90 27       	eor	r25, r16

	mov ST30, T0
    1352:	c4 2e       	mov	r12, r20
	mov ST31, T1
    1354:	d5 2e       	mov	r13, r21
	mov ST32, T3
    1356:	e7 2e       	mov	r14, r23
	mov ST33, r25
    1358:	f9 2e       	mov	r15, r25
	mov ST01, M1
    135a:	11 2e       	mov	r1, r17
	mov ST02, M2
    135c:	22 2e       	mov	r2, r18
	mov ST12, T2
    135e:	66 2e       	mov	r6, r22
	mov ST23, M3
    1360:	b3 2e       	mov	r11, r19
	.irp row, 0, 1, 2, 3
		.irp col, 0, 1, 2, 3
			ld r16, X+
			eor ST\row\col, r16
		.endr
	.endr
    1362:	0d 91       	ld	r16, X+
    1364:	00 26       	eor	r0, r16
    1366:	0d 91       	ld	r16, X+
    1368:	10 26       	eor	r1, r16
    136a:	0d 91       	ld	r16, X+
    136c:	20 26       	eor	r2, r16
    136e:	0d 91       	ld	r16, X+
    1370:	30 26       	eor	r3, r16
    1372:	0d 91       	ld	r16, X+
    1374:	40 26       	eor	r4, r16
    1376:	0d 91       	ld	r16, X+
    1378:	50 26       	eor	r5, r16
    137a:	0d 91       	ld	r16, X+
    137c:	60 26       	eor	r6, r16
    137e:	0d 91       	ld	r16, X+
    1380:	70 26       	eor	r7, r16
    1382:	0d 91       	ld	r16, X+
    1384:	80 26       	eor	r8, r16
    1386:	0d 91       	ld	r16, X+
    1388:	90 26       	eor	r9, r16
    138a:	0d 91       	ld	r16, X+
    138c:	a0 26       	eor	r10, r16
    138e:	0d 91       	ld	r16, X+
    1390:	b0 26       	eor	r11, r16
    1392:	0d 91       	ld	r16, X+
    1394:	c0 26       	eor	r12, r16
    1396:	0d 91       	ld	r16, X+
    1398:	d0 26       	eor	r13, r16
    139a:	0d 91       	ld	r16, X+
    139c:	e0 26       	eor	r14, r16
    139e:	0d 91       	ld	r16, X+
    13a0:	f0 26       	eor	r15, r16
	
	//3 Round------------------------------------------------------------------------------------------
	
	/* Shift Row and Subbyte , Mixcolumns */
	//! 1번째 열 시작
	mov r30, ST00 
    13a2:	e0 2d       	mov	r30, r0
	ld  M1, Z 
    13a4:	10 81       	ld	r17, Z
	mov M2, M1
    13a6:	21 2f       	mov	r18, r17
	mov M3, M2 
    13a8:	32 2f       	mov	r19, r18
	mov r28, ST00
    13aa:	c0 2d       	mov	r28, r0
	ld  M0, Y
    13ac:	08 81       	ld	r16, Y
	eor M3, M0 ; 2, 1, 1, 3 완료
    13ae:	30 27       	eor	r19, r16

	mov r30, ST11
    13b0:	e5 2d       	mov	r30, r5
	ld  T0, Z
    13b2:	40 81       	ld	r20, Z
	eor M0, T0
    13b4:	04 27       	eor	r16, r20
	eor M2, T0
    13b6:	24 27       	eor	r18, r20
	eor M3, T0 
    13b8:	34 27       	eor	r19, r20
	mov r28, ST11
    13ba:	c5 2d       	mov	r28, r5
	ld  T0, Y
    13bc:	48 81       	ld	r20, Y
	eor M0, T0
    13be:	04 27       	eor	r16, r20
	eor M1, T0 ;3, 2, 2, 1 완료
    13c0:	14 27       	eor	r17, r20

	mov r30, ST22
    13c2:	ea 2d       	mov	r30, r10
	ld  T0, Z
    13c4:	40 81       	ld	r20, Z
	eor M0, T0
    13c6:	04 27       	eor	r16, r20
	eor M1, T0
    13c8:	14 27       	eor	r17, r20
	eor M3, T0
    13ca:	34 27       	eor	r19, r20
	mov r28, ST22
    13cc:	ca 2d       	mov	r28, r10
	ld  T0, Y
    13ce:	48 81       	ld	r20, Y
	eor M1, T0
    13d0:	14 27       	eor	r17, r20
	eor M2, T0 ;1, 3, 2, 1 완료
    13d2:	24 27       	eor	r18, r20

	mov r30, ST33
    13d4:	ef 2d       	mov	r30, r15
	ld  T0, Z
    13d6:	40 81       	ld	r20, Z
	eor M0, T0
    13d8:	04 27       	eor	r16, r20
	eor M1, T0
    13da:	14 27       	eor	r17, r20
	eor M2, T0 
    13dc:	24 27       	eor	r18, r20
	mov r28, ST33
    13de:	cf 2d       	mov	r28, r15
	ld  T0, Y
    13e0:	48 81       	ld	r20, Y
	eor M2, T0
    13e2:	24 27       	eor	r18, r20
	eor M3, T0 ;1, 1, 3, 2 완료
    13e4:	34 27       	eor	r19, r20

	mov ST00, M0
    13e6:	00 2e       	mov	r0, r16
	//! 1번째 열 완료

	//! 2번째 열 시작
	mov r30, ST10 
    13e8:	e4 2d       	mov	r30, r4
	ld  T1, Z 
    13ea:	50 81       	ld	r21, Z
	mov T2, T1
    13ec:	65 2f       	mov	r22, r21
	mov T3, T2 
    13ee:	76 2f       	mov	r23, r22
	mov r28, ST10
    13f0:	c4 2d       	mov	r28, r4
	ld  T0, Y
    13f2:	48 81       	ld	r20, Y
	eor T3, T0 ; 2, 1, 1, 3 완료
    13f4:	74 27       	eor	r23, r20

	mov r30, ST21
    13f6:	e9 2d       	mov	r30, r9
	ld  M0, Z
    13f8:	00 81       	ld	r16, Z
	eor T0, M0
    13fa:	40 27       	eor	r20, r16
	eor T2, M0
    13fc:	60 27       	eor	r22, r16
	eor T3, M0 
    13fe:	70 27       	eor	r23, r16
	mov r28, ST21
    1400:	c9 2d       	mov	r28, r9
	ld  M0, Y
    1402:	08 81       	ld	r16, Y
	eor T0, M0
    1404:	40 27       	eor	r20, r16
	eor T1, M0 ;3, 2, 2, 1 완료
    1406:	50 27       	eor	r21, r16

	mov r30, ST32
    1408:	ee 2d       	mov	r30, r14
	ld  M0, Z
    140a:	00 81       	ld	r16, Z
	eor T0, M0
    140c:	40 27       	eor	r20, r16
	eor T1, M0
    140e:	50 27       	eor	r21, r16
	eor T3, M0 
    1410:	70 27       	eor	r23, r16
	mov r28, ST32
    1412:	ce 2d       	mov	r28, r14
	ld  M0, Y
    1414:	08 81       	ld	r16, Y
	eor T1, M0
    1416:	50 27       	eor	r21, r16
	eor T2, M0 ;1, 3, 2, 1 완료
    1418:	60 27       	eor	r22, r16

	mov r30, ST03
    141a:	e3 2d       	mov	r30, r3
	ld  M0, Z
    141c:	00 81       	ld	r16, Z
	eor T0, M0
    141e:	40 27       	eor	r20, r16
	eor T1, M0
    1420:	50 27       	eor	r21, r16
	eor T2, M0 
    1422:	60 27       	eor	r22, r16
	mov r28, ST03
    1424:	c3 2d       	mov	r28, r3
	ld  M0, Y
    1426:	08 81       	ld	r16, Y
	eor T2, M0
    1428:	60 27       	eor	r22, r16
	eor T3, M0 ;1, 1, 3, 2 완료
    142a:	70 27       	eor	r23, r16

	mov ST10, T0
    142c:	44 2e       	mov	r4, r20
	mov ST11, T1
    142e:	55 2e       	mov	r5, r21
	mov ST03, M3
    1430:	33 2e       	mov	r3, r19
	//! 2번째 열 완료

	//! 3번째 열 시작
	mov r30, ST20 
    1432:	e8 2d       	mov	r30, r8
	ld  T0, Z 
    1434:	40 81       	ld	r20, Z
	mov T1, T0
    1436:	54 2f       	mov	r21, r20
	mov M3, T1 
    1438:	35 2f       	mov	r19, r21
	mov r28, ST20
    143a:	c8 2d       	mov	r28, r8
	ld  M0, Y
    143c:	08 81       	ld	r16, Y
	eor M3, M0 ; 2, 1, 1, 3 완료
    143e:	30 27       	eor	r19, r16

	mov r30, ST31
    1440:	ed 2d       	mov	r30, r13
	ld  r25, Z
    1442:	90 81       	ld	r25, Z
	eor M0, r25
    1444:	09 27       	eor	r16, r25
	eor T1, r25
    1446:	59 27       	eor	r21, r25
	eor M3, r25
    1448:	39 27       	eor	r19, r25
	mov r28, ST31
    144a:	cd 2d       	mov	r28, r13
	ld  r25, Y
    144c:	98 81       	ld	r25, Y
	eor M0, r25
    144e:	09 27       	eor	r16, r25
	eor T0, r25 ;3, 2, 2, 1 완료
    1450:	49 27       	eor	r20, r25

	mov r30, ST02
    1452:	e2 2d       	mov	r30, r2
	ld  r25, Z
    1454:	90 81       	ld	r25, Z
	eor M0, r25
    1456:	09 27       	eor	r16, r25
	eor T0, r25
    1458:	49 27       	eor	r20, r25
	eor M3, r25
    145a:	39 27       	eor	r19, r25
	mov r28, ST02
    145c:	c2 2d       	mov	r28, r2
	ld  r25, Y
    145e:	98 81       	ld	r25, Y
	eor T0, r25
    1460:	49 27       	eor	r20, r25
	eor T1, r25;1, 3, 2, 1 완료
    1462:	59 27       	eor	r21, r25

	mov r30, ST13
    1464:	e7 2d       	mov	r30, r7
	ld  r25, Z
    1466:	90 81       	ld	r25, Z
	eor M0, r25
    1468:	09 27       	eor	r16, r25
	eor T0, r25
    146a:	49 27       	eor	r20, r25
	eor T1, r25 
    146c:	59 27       	eor	r21, r25
	mov r28, ST13
    146e:	c7 2d       	mov	r28, r7
	ld  r25, Y
    1470:	98 81       	ld	r25, Y
	eor T1, r25
    1472:	59 27       	eor	r21, r25
	eor M3, r25 ;1, 1, 3, 2 완료
    1474:	39 27       	eor	r19, r25

	mov ST20, M0
    1476:	80 2e       	mov	r8, r16
	mov ST21, T0
    1478:	94 2e       	mov	r9, r20
	mov ST22, T1
    147a:	a5 2e       	mov	r10, r21
	mov ST13, T3
    147c:	77 2e       	mov	r7, r23
	//! 3번째 열 완료



	//! 4번째 열 시작
	mov r30, ST30 
    147e:	ec 2d       	mov	r30, r12
	ld  T1, Z 
    1480:	50 81       	ld	r21, Z
	mov T3, T1
    1482:	75 2f       	mov	r23, r21
	mov r25, T3 
    1484:	97 2f       	mov	r25, r23
	mov r28, ST30
    1486:	cc 2d       	mov	r28, r12
	ld  T0, Y
    1488:	48 81       	ld	r20, Y
	eor r25, T0 ; 2, 1, 1, 3 완료
    148a:	94 27       	eor	r25, r20

	mov r30, ST01
    148c:	e1 2d       	mov	r30, r1
	ld  M0, Z
    148e:	00 81       	ld	r16, Z
	eor T0, M0
    1490:	40 27       	eor	r20, r16
	eor T3, M0
    1492:	70 27       	eor	r23, r16
	eor r25, M0 
    1494:	90 27       	eor	r25, r16
	mov r28, ST01
    1496:	c1 2d       	mov	r28, r1
	ld  M0, Y
    1498:	08 81       	ld	r16, Y
	eor T0, M0
    149a:	40 27       	eor	r20, r16
	eor T1, M0 ;3, 2, 2, 1 완료
    149c:	50 27       	eor	r21, r16

	mov r30, ST12
    149e:	e6 2d       	mov	r30, r6
	ld  M0, Z
    14a0:	00 81       	ld	r16, Z
	eor T0, M0
    14a2:	40 27       	eor	r20, r16
	eor T1, M0
    14a4:	50 27       	eor	r21, r16
	eor r25, M0 
    14a6:	90 27       	eor	r25, r16
	mov r28, ST12
    14a8:	c6 2d       	mov	r28, r6
	ld  M0, Y
    14aa:	08 81       	ld	r16, Y
	eor T1, M0
    14ac:	50 27       	eor	r21, r16
	eor T3, M0 ;1, 3, 2, 1 완료
    14ae:	70 27       	eor	r23, r16

	mov r30, ST23
    14b0:	eb 2d       	mov	r30, r11
	ld  M0, Z
    14b2:	00 81       	ld	r16, Z
	eor T0, M0
    14b4:	40 27       	eor	r20, r16
	eor T1, M0
    14b6:	50 27       	eor	r21, r16
	eor T3, M0 
    14b8:	70 27       	eor	r23, r16
	mov r28, ST23
    14ba:	cb 2d       	mov	r28, r11
	ld  M0, Y
    14bc:	08 81       	ld	r16, Y
	eor T3, M0
    14be:	70 27       	eor	r23, r16
	eor r25, M0 ;1, 1, 3, 2 완료
    14c0:	90 27       	eor	r25, r16

	mov ST30, T0
    14c2:	c4 2e       	mov	r12, r20
	mov ST31, T1
    14c4:	d5 2e       	mov	r13, r21
	mov ST32, T3
    14c6:	e7 2e       	mov	r14, r23
	mov ST33, r25
    14c8:	f9 2e       	mov	r15, r25
	mov ST01, M1
    14ca:	11 2e       	mov	r1, r17
	mov ST02, M2
    14cc:	22 2e       	mov	r2, r18
	mov ST12, T2
    14ce:	66 2e       	mov	r6, r22
	mov ST23, M3
    14d0:	b3 2e       	mov	r11, r19
	.irp row, 0, 1, 2, 3
		.irp col, 0, 1, 2, 3
			ld r16, X+
			eor ST\row\col, r16
		.endr
	.endr
    14d2:	0d 91       	ld	r16, X+
    14d4:	00 26       	eor	r0, r16
    14d6:	0d 91       	ld	r16, X+
    14d8:	10 26       	eor	r1, r16
    14da:	0d 91       	ld	r16, X+
    14dc:	20 26       	eor	r2, r16
    14de:	0d 91       	ld	r16, X+
    14e0:	30 26       	eor	r3, r16
    14e2:	0d 91       	ld	r16, X+
    14e4:	40 26       	eor	r4, r16
    14e6:	0d 91       	ld	r16, X+
    14e8:	50 26       	eor	r5, r16
    14ea:	0d 91       	ld	r16, X+
    14ec:	60 26       	eor	r6, r16
    14ee:	0d 91       	ld	r16, X+
    14f0:	70 26       	eor	r7, r16
    14f2:	0d 91       	ld	r16, X+
    14f4:	80 26       	eor	r8, r16
    14f6:	0d 91       	ld	r16, X+
    14f8:	90 26       	eor	r9, r16
    14fa:	0d 91       	ld	r16, X+
    14fc:	a0 26       	eor	r10, r16
    14fe:	0d 91       	ld	r16, X+
    1500:	b0 26       	eor	r11, r16
    1502:	0d 91       	ld	r16, X+
    1504:	c0 26       	eor	r12, r16
    1506:	0d 91       	ld	r16, X+
    1508:	d0 26       	eor	r13, r16
    150a:	0d 91       	ld	r16, X+
    150c:	e0 26       	eor	r14, r16
    150e:	0d 91       	ld	r16, X+
    1510:	f0 26       	eor	r15, r16
	
	//4 Round------------------------------------------------------------------------------------------
	
	/* Shift Row and Subbyte , Mixcolumns */
	//! 1번째 열 시작
	mov r30, ST00 
    1512:	e0 2d       	mov	r30, r0
	ld  M1, Z 
    1514:	10 81       	ld	r17, Z
	mov M2, M1
    1516:	21 2f       	mov	r18, r17
	mov M3, M2 
    1518:	32 2f       	mov	r19, r18
	mov r28, ST00
    151a:	c0 2d       	mov	r28, r0
	ld  M0, Y
    151c:	08 81       	ld	r16, Y
	eor M3, M0 ; 2, 1, 1, 3 완료
    151e:	30 27       	eor	r19, r16

	mov r30, ST11
    1520:	e5 2d       	mov	r30, r5
	ld  T0, Z
    1522:	40 81       	ld	r20, Z
	eor M0, T0
    1524:	04 27       	eor	r16, r20
	eor M2, T0
    1526:	24 27       	eor	r18, r20
	eor M3, T0 
    1528:	34 27       	eor	r19, r20
	mov r28, ST11
    152a:	c5 2d       	mov	r28, r5
	ld  T0, Y
    152c:	48 81       	ld	r20, Y
	eor M0, T0
    152e:	04 27       	eor	r16, r20
	eor M1, T0 ;3, 2, 2, 1 완료
    1530:	14 27       	eor	r17, r20

	mov r30, ST22
    1532:	ea 2d       	mov	r30, r10
	ld  T0, Z
    1534:	40 81       	ld	r20, Z
	eor M0, T0
    1536:	04 27       	eor	r16, r20
	eor M1, T0
    1538:	14 27       	eor	r17, r20
	eor M3, T0
    153a:	34 27       	eor	r19, r20
	mov r28, ST22
    153c:	ca 2d       	mov	r28, r10
	ld  T0, Y
    153e:	48 81       	ld	r20, Y
	eor M1, T0
    1540:	14 27       	eor	r17, r20
	eor M2, T0 ;1, 3, 2, 1 완료
    1542:	24 27       	eor	r18, r20

	mov r30, ST33
    1544:	ef 2d       	mov	r30, r15
	ld  T0, Z
    1546:	40 81       	ld	r20, Z
	eor M0, T0
    1548:	04 27       	eor	r16, r20
	eor M1, T0
    154a:	14 27       	eor	r17, r20
	eor M2, T0 
    154c:	24 27       	eor	r18, r20
	mov r28, ST33
    154e:	cf 2d       	mov	r28, r15
	ld  T0, Y
    1550:	48 81       	ld	r20, Y
	eor M2, T0
    1552:	24 27       	eor	r18, r20
	eor M3, T0 ;1, 1, 3, 2 완료
    1554:	34 27       	eor	r19, r20

	mov ST00, M0
    1556:	00 2e       	mov	r0, r16
	//! 1번째 열 완료

	//! 2번째 열 시작
	mov r30, ST10 
    1558:	e4 2d       	mov	r30, r4
	ld  T1, Z 
    155a:	50 81       	ld	r21, Z
	mov T2, T1
    155c:	65 2f       	mov	r22, r21
	mov T3, T2 
    155e:	76 2f       	mov	r23, r22
	mov r28, ST10
    1560:	c4 2d       	mov	r28, r4
	ld  T0, Y
    1562:	48 81       	ld	r20, Y
	eor T3, T0 ; 2, 1, 1, 3 완료
    1564:	74 27       	eor	r23, r20

	mov r30, ST21
    1566:	e9 2d       	mov	r30, r9
	ld  M0, Z
    1568:	00 81       	ld	r16, Z
	eor T0, M0
    156a:	40 27       	eor	r20, r16
	eor T2, M0
    156c:	60 27       	eor	r22, r16
	eor T3, M0 
    156e:	70 27       	eor	r23, r16
	mov r28, ST21
    1570:	c9 2d       	mov	r28, r9
	ld  M0, Y
    1572:	08 81       	ld	r16, Y
	eor T0, M0
    1574:	40 27       	eor	r20, r16
	eor T1, M0 ;3, 2, 2, 1 완료
    1576:	50 27       	eor	r21, r16

	mov r30, ST32
    1578:	ee 2d       	mov	r30, r14
	ld  M0, Z
    157a:	00 81       	ld	r16, Z
	eor T0, M0
    157c:	40 27       	eor	r20, r16
	eor T1, M0
    157e:	50 27       	eor	r21, r16
	eor T3, M0 
    1580:	70 27       	eor	r23, r16
	mov r28, ST32
    1582:	ce 2d       	mov	r28, r14
	ld  M0, Y
    1584:	08 81       	ld	r16, Y
	eor T1, M0
    1586:	50 27       	eor	r21, r16
	eor T2, M0 ;1, 3, 2, 1 완료
    1588:	60 27       	eor	r22, r16

	mov r30, ST03
    158a:	e3 2d       	mov	r30, r3
	ld  M0, Z
    158c:	00 81       	ld	r16, Z
	eor T0, M0
    158e:	40 27       	eor	r20, r16
	eor T1, M0
    1590:	50 27       	eor	r21, r16
	eor T2, M0 
    1592:	60 27       	eor	r22, r16
	mov r28, ST03
    1594:	c3 2d       	mov	r28, r3
	ld  M0, Y
    1596:	08 81       	ld	r16, Y
	eor T2, M0
    1598:	60 27       	eor	r22, r16
	eor T3, M0 ;1, 1, 3, 2 완료
    159a:	70 27       	eor	r23, r16

	mov ST10, T0
    159c:	44 2e       	mov	r4, r20
	mov ST11, T1
    159e:	55 2e       	mov	r5, r21
	mov ST03, M3
    15a0:	33 2e       	mov	r3, r19
	//! 2번째 열 완료

	//! 3번째 열 시작
	mov r30, ST20 
    15a2:	e8 2d       	mov	r30, r8
	ld  T0, Z 
    15a4:	40 81       	ld	r20, Z
	mov T1, T0
    15a6:	54 2f       	mov	r21, r20
	mov M3, T1 
    15a8:	35 2f       	mov	r19, r21
	mov r28, ST20
    15aa:	c8 2d       	mov	r28, r8
	ld  M0, Y
    15ac:	08 81       	ld	r16, Y
	eor M3, M0 ; 2, 1, 1, 3 완료
    15ae:	30 27       	eor	r19, r16

	mov r30, ST31
    15b0:	ed 2d       	mov	r30, r13
	ld  r25, Z
    15b2:	90 81       	ld	r25, Z
	eor M0, r25
    15b4:	09 27       	eor	r16, r25
	eor T1, r25
    15b6:	59 27       	eor	r21, r25
	eor M3, r25
    15b8:	39 27       	eor	r19, r25
	mov r28, ST31
    15ba:	cd 2d       	mov	r28, r13
	ld  r25, Y
    15bc:	98 81       	ld	r25, Y
	eor M0, r25
    15be:	09 27       	eor	r16, r25
	eor T0, r25 ;3, 2, 2, 1 완료
    15c0:	49 27       	eor	r20, r25

	mov r30, ST02
    15c2:	e2 2d       	mov	r30, r2
	ld  r25, Z
    15c4:	90 81       	ld	r25, Z
	eor M0, r25
    15c6:	09 27       	eor	r16, r25
	eor T0, r25
    15c8:	49 27       	eor	r20, r25
	eor M3, r25
    15ca:	39 27       	eor	r19, r25
	mov r28, ST02
    15cc:	c2 2d       	mov	r28, r2
	ld  r25, Y
    15ce:	98 81       	ld	r25, Y
	eor T0, r25
    15d0:	49 27       	eor	r20, r25
	eor T1, r25;1, 3, 2, 1 완료
    15d2:	59 27       	eor	r21, r25

	mov r30, ST13
    15d4:	e7 2d       	mov	r30, r7
	ld  r25, Z
    15d6:	90 81       	ld	r25, Z
	eor M0, r25
    15d8:	09 27       	eor	r16, r25
	eor T0, r25
    15da:	49 27       	eor	r20, r25
	eor T1, r25 
    15dc:	59 27       	eor	r21, r25
	mov r28, ST13
    15de:	c7 2d       	mov	r28, r7
	ld  r25, Y
    15e0:	98 81       	ld	r25, Y
	eor T1, r25
    15e2:	59 27       	eor	r21, r25
	eor M3, r25 ;1, 1, 3, 2 완료
    15e4:	39 27       	eor	r19, r25

	mov ST20, M0
    15e6:	80 2e       	mov	r8, r16
	mov ST21, T0
    15e8:	94 2e       	mov	r9, r20
	mov ST22, T1
    15ea:	a5 2e       	mov	r10, r21
	mov ST13, T3
    15ec:	77 2e       	mov	r7, r23
	//! 3번째 열 완료



	//! 4번째 열 시작
	mov r30, ST30 
    15ee:	ec 2d       	mov	r30, r12
	ld  T1, Z 
    15f0:	50 81       	ld	r21, Z
	mov T3, T1
    15f2:	75 2f       	mov	r23, r21
	mov r25, T3 
    15f4:	97 2f       	mov	r25, r23
	mov r28, ST30
    15f6:	cc 2d       	mov	r28, r12
	ld  T0, Y
    15f8:	48 81       	ld	r20, Y
	eor r25, T0 ; 2, 1, 1, 3 완료
    15fa:	94 27       	eor	r25, r20

	mov r30, ST01
    15fc:	e1 2d       	mov	r30, r1
	ld  M0, Z
    15fe:	00 81       	ld	r16, Z
	eor T0, M0
    1600:	40 27       	eor	r20, r16
	eor T3, M0
    1602:	70 27       	eor	r23, r16
	eor r25, M0 
    1604:	90 27       	eor	r25, r16
	mov r28, ST01
    1606:	c1 2d       	mov	r28, r1
	ld  M0, Y
    1608:	08 81       	ld	r16, Y
	eor T0, M0
    160a:	40 27       	eor	r20, r16
	eor T1, M0 ;3, 2, 2, 1 완료
    160c:	50 27       	eor	r21, r16

	mov r30, ST12
    160e:	e6 2d       	mov	r30, r6
	ld  M0, Z
    1610:	00 81       	ld	r16, Z
	eor T0, M0
    1612:	40 27       	eor	r20, r16
	eor T1, M0
    1614:	50 27       	eor	r21, r16
	eor r25, M0 
    1616:	90 27       	eor	r25, r16
	mov r28, ST12
    1618:	c6 2d       	mov	r28, r6
	ld  M0, Y
    161a:	08 81       	ld	r16, Y
	eor T1, M0
    161c:	50 27       	eor	r21, r16
	eor T3, M0 ;1, 3, 2, 1 완료
    161e:	70 27       	eor	r23, r16

	mov r30, ST23
    1620:	eb 2d       	mov	r30, r11
	ld  M0, Z
    1622:	00 81       	ld	r16, Z
	eor T0, M0
    1624:	40 27       	eor	r20, r16
	eor T1, M0
    1626:	50 27       	eor	r21, r16
	eor T3, M0 
    1628:	70 27       	eor	r23, r16
	mov r28, ST23
    162a:	cb 2d       	mov	r28, r11
	ld  M0, Y
    162c:	08 81       	ld	r16, Y
	eor T3, M0
    162e:	70 27       	eor	r23, r16
	eor r25, M0 ;1, 1, 3, 2 완료
    1630:	90 27       	eor	r25, r16

	mov ST30, T0
    1632:	c4 2e       	mov	r12, r20
	mov ST31, T1
    1634:	d5 2e       	mov	r13, r21
	mov ST32, T3
    1636:	e7 2e       	mov	r14, r23
	mov ST33, r25
    1638:	f9 2e       	mov	r15, r25
	mov ST01, M1
    163a:	11 2e       	mov	r1, r17
	mov ST02, M2
    163c:	22 2e       	mov	r2, r18
	mov ST12, T2
    163e:	66 2e       	mov	r6, r22
	mov ST23, M3
    1640:	b3 2e       	mov	r11, r19
	.irp row, 0, 1, 2, 3
		.irp col, 0, 1, 2, 3
			ld r16, X+
			eor ST\row\col, r16
		.endr
	.endr
    1642:	0d 91       	ld	r16, X+
    1644:	00 26       	eor	r0, r16
    1646:	0d 91       	ld	r16, X+
    1648:	10 26       	eor	r1, r16
    164a:	0d 91       	ld	r16, X+
    164c:	20 26       	eor	r2, r16
    164e:	0d 91       	ld	r16, X+
    1650:	30 26       	eor	r3, r16
    1652:	0d 91       	ld	r16, X+
    1654:	40 26       	eor	r4, r16
    1656:	0d 91       	ld	r16, X+
    1658:	50 26       	eor	r5, r16
    165a:	0d 91       	ld	r16, X+
    165c:	60 26       	eor	r6, r16
    165e:	0d 91       	ld	r16, X+
    1660:	70 26       	eor	r7, r16
    1662:	0d 91       	ld	r16, X+
    1664:	80 26       	eor	r8, r16
    1666:	0d 91       	ld	r16, X+
    1668:	90 26       	eor	r9, r16
    166a:	0d 91       	ld	r16, X+
    166c:	a0 26       	eor	r10, r16
    166e:	0d 91       	ld	r16, X+
    1670:	b0 26       	eor	r11, r16
    1672:	0d 91       	ld	r16, X+
    1674:	c0 26       	eor	r12, r16
    1676:	0d 91       	ld	r16, X+
    1678:	d0 26       	eor	r13, r16
    167a:	0d 91       	ld	r16, X+
    167c:	e0 26       	eor	r14, r16
    167e:	0d 91       	ld	r16, X+
    1680:	f0 26       	eor	r15, r16
	
	//5 Round------------------------------------------------------------------------------------------
	
	/* Shift Row and Subbyte , Mixcolumns */
	//! 1번째 열 시작
	mov r30, ST00 
    1682:	e0 2d       	mov	r30, r0
	ld  M1, Z 
    1684:	10 81       	ld	r17, Z
	mov M2, M1
    1686:	21 2f       	mov	r18, r17
	mov M3, M2 
    1688:	32 2f       	mov	r19, r18
	mov r28, ST00
    168a:	c0 2d       	mov	r28, r0
	ld  M0, Y
    168c:	08 81       	ld	r16, Y
	eor M3, M0 ; 2, 1, 1, 3 완료
    168e:	30 27       	eor	r19, r16

	mov r30, ST11
    1690:	e5 2d       	mov	r30, r5
	ld  T0, Z
    1692:	40 81       	ld	r20, Z
	eor M0, T0
    1694:	04 27       	eor	r16, r20
	eor M2, T0
    1696:	24 27       	eor	r18, r20
	eor M3, T0 
    1698:	34 27       	eor	r19, r20
	mov r28, ST11
    169a:	c5 2d       	mov	r28, r5
	ld  T0, Y
    169c:	48 81       	ld	r20, Y
	eor M0, T0
    169e:	04 27       	eor	r16, r20
	eor M1, T0 ;3, 2, 2, 1 완료
    16a0:	14 27       	eor	r17, r20

	mov r30, ST22
    16a2:	ea 2d       	mov	r30, r10
	ld  T0, Z
    16a4:	40 81       	ld	r20, Z
	eor M0, T0
    16a6:	04 27       	eor	r16, r20
	eor M1, T0
    16a8:	14 27       	eor	r17, r20
	eor M3, T0
    16aa:	34 27       	eor	r19, r20
	mov r28, ST22
    16ac:	ca 2d       	mov	r28, r10
	ld  T0, Y
    16ae:	48 81       	ld	r20, Y
	eor M1, T0
    16b0:	14 27       	eor	r17, r20
	eor M2, T0 ;1, 3, 2, 1 완료
    16b2:	24 27       	eor	r18, r20

	mov r30, ST33
    16b4:	ef 2d       	mov	r30, r15
	ld  T0, Z
    16b6:	40 81       	ld	r20, Z
	eor M0, T0
    16b8:	04 27       	eor	r16, r20
	eor M1, T0
    16ba:	14 27       	eor	r17, r20
	eor M2, T0 
    16bc:	24 27       	eor	r18, r20
	mov r28, ST33
    16be:	cf 2d       	mov	r28, r15
	ld  T0, Y
    16c0:	48 81       	ld	r20, Y
	eor M2, T0
    16c2:	24 27       	eor	r18, r20
	eor M3, T0 ;1, 1, 3, 2 완료
    16c4:	34 27       	eor	r19, r20

	mov ST00, M0
    16c6:	00 2e       	mov	r0, r16
	//! 1번째 열 완료

	//! 2번째 열 시작
	mov r30, ST10 
    16c8:	e4 2d       	mov	r30, r4
	ld  T1, Z 
    16ca:	50 81       	ld	r21, Z
	mov T2, T1
    16cc:	65 2f       	mov	r22, r21
	mov T3, T2 
    16ce:	76 2f       	mov	r23, r22
	mov r28, ST10
    16d0:	c4 2d       	mov	r28, r4
	ld  T0, Y
    16d2:	48 81       	ld	r20, Y
	eor T3, T0 ; 2, 1, 1, 3 완료
    16d4:	74 27       	eor	r23, r20

	mov r30, ST21
    16d6:	e9 2d       	mov	r30, r9
	ld  M0, Z
    16d8:	00 81       	ld	r16, Z
	eor T0, M0
    16da:	40 27       	eor	r20, r16
	eor T2, M0
    16dc:	60 27       	eor	r22, r16
	eor T3, M0 
    16de:	70 27       	eor	r23, r16
	mov r28, ST21
    16e0:	c9 2d       	mov	r28, r9
	ld  M0, Y
    16e2:	08 81       	ld	r16, Y
	eor T0, M0
    16e4:	40 27       	eor	r20, r16
	eor T1, M0 ;3, 2, 2, 1 완료
    16e6:	50 27       	eor	r21, r16

	mov r30, ST32
    16e8:	ee 2d       	mov	r30, r14
	ld  M0, Z
    16ea:	00 81       	ld	r16, Z
	eor T0, M0
    16ec:	40 27       	eor	r20, r16
	eor T1, M0
    16ee:	50 27       	eor	r21, r16
	eor T3, M0 
    16f0:	70 27       	eor	r23, r16
	mov r28, ST32
    16f2:	ce 2d       	mov	r28, r14
	ld  M0, Y
    16f4:	08 81       	ld	r16, Y
	eor T1, M0
    16f6:	50 27       	eor	r21, r16
	eor T2, M0 ;1, 3, 2, 1 완료
    16f8:	60 27       	eor	r22, r16

	mov r30, ST03
    16fa:	e3 2d       	mov	r30, r3
	ld  M0, Z
    16fc:	00 81       	ld	r16, Z
	eor T0, M0
    16fe:	40 27       	eor	r20, r16
	eor T1, M0
    1700:	50 27       	eor	r21, r16
	eor T2, M0 
    1702:	60 27       	eor	r22, r16
	mov r28, ST03
    1704:	c3 2d       	mov	r28, r3
	ld  M0, Y
    1706:	08 81       	ld	r16, Y
	eor T2, M0
    1708:	60 27       	eor	r22, r16
	eor T3, M0 ;1, 1, 3, 2 완료
    170a:	70 27       	eor	r23, r16

	mov ST10, T0
    170c:	44 2e       	mov	r4, r20
	mov ST11, T1
    170e:	55 2e       	mov	r5, r21
	mov ST03, M3
    1710:	33 2e       	mov	r3, r19
	//! 2번째 열 완료

	//! 3번째 열 시작
	mov r30, ST20 
    1712:	e8 2d       	mov	r30, r8
	ld  T0, Z 
    1714:	40 81       	ld	r20, Z
	mov T1, T0
    1716:	54 2f       	mov	r21, r20
	mov M3, T1 
    1718:	35 2f       	mov	r19, r21
	mov r28, ST20
    171a:	c8 2d       	mov	r28, r8
	ld  M0, Y
    171c:	08 81       	ld	r16, Y
	eor M3, M0 ; 2, 1, 1, 3 완료
    171e:	30 27       	eor	r19, r16

	mov r30, ST31
    1720:	ed 2d       	mov	r30, r13
	ld  r25, Z
    1722:	90 81       	ld	r25, Z
	eor M0, r25
    1724:	09 27       	eor	r16, r25
	eor T1, r25
    1726:	59 27       	eor	r21, r25
	eor M3, r25
    1728:	39 27       	eor	r19, r25
	mov r28, ST31
    172a:	cd 2d       	mov	r28, r13
	ld  r25, Y
    172c:	98 81       	ld	r25, Y
	eor M0, r25
    172e:	09 27       	eor	r16, r25
	eor T0, r25 ;3, 2, 2, 1 완료
    1730:	49 27       	eor	r20, r25

	mov r30, ST02
    1732:	e2 2d       	mov	r30, r2
	ld  r25, Z
    1734:	90 81       	ld	r25, Z
	eor M0, r25
    1736:	09 27       	eor	r16, r25
	eor T0, r25
    1738:	49 27       	eor	r20, r25
	eor M3, r25
    173a:	39 27       	eor	r19, r25
	mov r28, ST02
    173c:	c2 2d       	mov	r28, r2
	ld  r25, Y
    173e:	98 81       	ld	r25, Y
	eor T0, r25
    1740:	49 27       	eor	r20, r25
	eor T1, r25;1, 3, 2, 1 완료
    1742:	59 27       	eor	r21, r25

	mov r30, ST13
    1744:	e7 2d       	mov	r30, r7
	ld  r25, Z
    1746:	90 81       	ld	r25, Z
	eor M0, r25
    1748:	09 27       	eor	r16, r25
	eor T0, r25
    174a:	49 27       	eor	r20, r25
	eor T1, r25 
    174c:	59 27       	eor	r21, r25
	mov r28, ST13
    174e:	c7 2d       	mov	r28, r7
	ld  r25, Y
    1750:	98 81       	ld	r25, Y
	eor T1, r25
    1752:	59 27       	eor	r21, r25
	eor M3, r25 ;1, 1, 3, 2 완료
    1754:	39 27       	eor	r19, r25

	mov ST20, M0
    1756:	80 2e       	mov	r8, r16
	mov ST21, T0
    1758:	94 2e       	mov	r9, r20
	mov ST22, T1
    175a:	a5 2e       	mov	r10, r21
	mov ST13, T3
    175c:	77 2e       	mov	r7, r23
	//! 3번째 열 완료



	//! 4번째 열 시작
	mov r30, ST30 
    175e:	ec 2d       	mov	r30, r12
	ld  T1, Z 
    1760:	50 81       	ld	r21, Z
	mov T3, T1
    1762:	75 2f       	mov	r23, r21
	mov r25, T3 
    1764:	97 2f       	mov	r25, r23
	mov r28, ST30
    1766:	cc 2d       	mov	r28, r12
	ld  T0, Y
    1768:	48 81       	ld	r20, Y
	eor r25, T0 ; 2, 1, 1, 3 완료
    176a:	94 27       	eor	r25, r20

	mov r30, ST01
    176c:	e1 2d       	mov	r30, r1
	ld  M0, Z
    176e:	00 81       	ld	r16, Z
	eor T0, M0
    1770:	40 27       	eor	r20, r16
	eor T3, M0
    1772:	70 27       	eor	r23, r16
	eor r25, M0 
    1774:	90 27       	eor	r25, r16
	mov r28, ST01
    1776:	c1 2d       	mov	r28, r1
	ld  M0, Y
    1778:	08 81       	ld	r16, Y
	eor T0, M0
    177a:	40 27       	eor	r20, r16
	eor T1, M0 ;3, 2, 2, 1 완료
    177c:	50 27       	eor	r21, r16

	mov r30, ST12
    177e:	e6 2d       	mov	r30, r6
	ld  M0, Z
    1780:	00 81       	ld	r16, Z
	eor T0, M0
    1782:	40 27       	eor	r20, r16
	eor T1, M0
    1784:	50 27       	eor	r21, r16
	eor r25, M0 
    1786:	90 27       	eor	r25, r16
	mov r28, ST12
    1788:	c6 2d       	mov	r28, r6
	ld  M0, Y
    178a:	08 81       	ld	r16, Y
	eor T1, M0
    178c:	50 27       	eor	r21, r16
	eor T3, M0 ;1, 3, 2, 1 완료
    178e:	70 27       	eor	r23, r16

	mov r30, ST23
    1790:	eb 2d       	mov	r30, r11
	ld  M0, Z
    1792:	00 81       	ld	r16, Z
	eor T0, M0
    1794:	40 27       	eor	r20, r16
	eor T1, M0
    1796:	50 27       	eor	r21, r16
	eor T3, M0 
    1798:	70 27       	eor	r23, r16
	mov r28, ST23
    179a:	cb 2d       	mov	r28, r11
	ld  M0, Y
    179c:	08 81       	ld	r16, Y
	eor T3, M0
    179e:	70 27       	eor	r23, r16
	eor r25, M0 ;1, 1, 3, 2 완료
    17a0:	90 27       	eor	r25, r16

	mov ST30, T0
    17a2:	c4 2e       	mov	r12, r20
	mov ST31, T1
    17a4:	d5 2e       	mov	r13, r21
	mov ST32, T3
    17a6:	e7 2e       	mov	r14, r23
	mov ST33, r25
    17a8:	f9 2e       	mov	r15, r25
	mov ST01, M1
    17aa:	11 2e       	mov	r1, r17
	mov ST02, M2
    17ac:	22 2e       	mov	r2, r18
	mov ST12, T2
    17ae:	66 2e       	mov	r6, r22
	mov ST23, M3
    17b0:	b3 2e       	mov	r11, r19
	.irp row, 0, 1, 2, 3
		.irp col, 0, 1, 2, 3
			ld r16, X+
			eor ST\row\col, r16
		.endr
	.endr
    17b2:	0d 91       	ld	r16, X+
    17b4:	00 26       	eor	r0, r16
    17b6:	0d 91       	ld	r16, X+
    17b8:	10 26       	eor	r1, r16
    17ba:	0d 91       	ld	r16, X+
    17bc:	20 26       	eor	r2, r16
    17be:	0d 91       	ld	r16, X+
    17c0:	30 26       	eor	r3, r16
    17c2:	0d 91       	ld	r16, X+
    17c4:	40 26       	eor	r4, r16
    17c6:	0d 91       	ld	r16, X+
    17c8:	50 26       	eor	r5, r16
    17ca:	0d 91       	ld	r16, X+
    17cc:	60 26       	eor	r6, r16
    17ce:	0d 91       	ld	r16, X+
    17d0:	70 26       	eor	r7, r16
    17d2:	0d 91       	ld	r16, X+
    17d4:	80 26       	eor	r8, r16
    17d6:	0d 91       	ld	r16, X+
    17d8:	90 26       	eor	r9, r16
    17da:	0d 91       	ld	r16, X+
    17dc:	a0 26       	eor	r10, r16
    17de:	0d 91       	ld	r16, X+
    17e0:	b0 26       	eor	r11, r16
    17e2:	0d 91       	ld	r16, X+
    17e4:	c0 26       	eor	r12, r16
    17e6:	0d 91       	ld	r16, X+
    17e8:	d0 26       	eor	r13, r16
    17ea:	0d 91       	ld	r16, X+
    17ec:	e0 26       	eor	r14, r16
    17ee:	0d 91       	ld	r16, X+
    17f0:	f0 26       	eor	r15, r16
	
	//6 Round------------------------------------------------------------------------------------------
	
	/* Shift Row and Subbyte , Mixcolumns */
	//! 1번째 열 시작
	mov r30, ST00 
    17f2:	e0 2d       	mov	r30, r0
	ld  M1, Z 
    17f4:	10 81       	ld	r17, Z
	mov M2, M1
    17f6:	21 2f       	mov	r18, r17
	mov M3, M2 
    17f8:	32 2f       	mov	r19, r18
	mov r28, ST00
    17fa:	c0 2d       	mov	r28, r0
	ld  M0, Y
    17fc:	08 81       	ld	r16, Y
	eor M3, M0 ; 2, 1, 1, 3 완료
    17fe:	30 27       	eor	r19, r16

	mov r30, ST11
    1800:	e5 2d       	mov	r30, r5
	ld  T0, Z
    1802:	40 81       	ld	r20, Z
	eor M0, T0
    1804:	04 27       	eor	r16, r20
	eor M2, T0
    1806:	24 27       	eor	r18, r20
	eor M3, T0 
    1808:	34 27       	eor	r19, r20
	mov r28, ST11
    180a:	c5 2d       	mov	r28, r5
	ld  T0, Y
    180c:	48 81       	ld	r20, Y
	eor M0, T0
    180e:	04 27       	eor	r16, r20
	eor M1, T0 ;3, 2, 2, 1 완료
    1810:	14 27       	eor	r17, r20

	mov r30, ST22
    1812:	ea 2d       	mov	r30, r10
	ld  T0, Z
    1814:	40 81       	ld	r20, Z
	eor M0, T0
    1816:	04 27       	eor	r16, r20
	eor M1, T0
    1818:	14 27       	eor	r17, r20
	eor M3, T0
    181a:	34 27       	eor	r19, r20
	mov r28, ST22
    181c:	ca 2d       	mov	r28, r10
	ld  T0, Y
    181e:	48 81       	ld	r20, Y
	eor M1, T0
    1820:	14 27       	eor	r17, r20
	eor M2, T0 ;1, 3, 2, 1 완료
    1822:	24 27       	eor	r18, r20

	mov r30, ST33
    1824:	ef 2d       	mov	r30, r15
	ld  T0, Z
    1826:	40 81       	ld	r20, Z
	eor M0, T0
    1828:	04 27       	eor	r16, r20
	eor M1, T0
    182a:	14 27       	eor	r17, r20
	eor M2, T0 
    182c:	24 27       	eor	r18, r20
	mov r28, ST33
    182e:	cf 2d       	mov	r28, r15
	ld  T0, Y
    1830:	48 81       	ld	r20, Y
	eor M2, T0
    1832:	24 27       	eor	r18, r20
	eor M3, T0 ;1, 1, 3, 2 완료
    1834:	34 27       	eor	r19, r20

	mov ST00, M0
    1836:	00 2e       	mov	r0, r16
	//! 1번째 열 완료

	//! 2번째 열 시작
	mov r30, ST10 
    1838:	e4 2d       	mov	r30, r4
	ld  T1, Z 
    183a:	50 81       	ld	r21, Z
	mov T2, T1
    183c:	65 2f       	mov	r22, r21
	mov T3, T2 
    183e:	76 2f       	mov	r23, r22
	mov r28, ST10
    1840:	c4 2d       	mov	r28, r4
	ld  T0, Y
    1842:	48 81       	ld	r20, Y
	eor T3, T0 ; 2, 1, 1, 3 완료
    1844:	74 27       	eor	r23, r20

	mov r30, ST21
    1846:	e9 2d       	mov	r30, r9
	ld  M0, Z
    1848:	00 81       	ld	r16, Z
	eor T0, M0
    184a:	40 27       	eor	r20, r16
	eor T2, M0
    184c:	60 27       	eor	r22, r16
	eor T3, M0 
    184e:	70 27       	eor	r23, r16
	mov r28, ST21
    1850:	c9 2d       	mov	r28, r9
	ld  M0, Y
    1852:	08 81       	ld	r16, Y
	eor T0, M0
    1854:	40 27       	eor	r20, r16
	eor T1, M0 ;3, 2, 2, 1 완료
    1856:	50 27       	eor	r21, r16

	mov r30, ST32
    1858:	ee 2d       	mov	r30, r14
	ld  M0, Z
    185a:	00 81       	ld	r16, Z
	eor T0, M0
    185c:	40 27       	eor	r20, r16
	eor T1, M0
    185e:	50 27       	eor	r21, r16
	eor T3, M0 
    1860:	70 27       	eor	r23, r16
	mov r28, ST32
    1862:	ce 2d       	mov	r28, r14
	ld  M0, Y
    1864:	08 81       	ld	r16, Y
	eor T1, M0
    1866:	50 27       	eor	r21, r16
	eor T2, M0 ;1, 3, 2, 1 완료
    1868:	60 27       	eor	r22, r16

	mov r30, ST03
    186a:	e3 2d       	mov	r30, r3
	ld  M0, Z
    186c:	00 81       	ld	r16, Z
	eor T0, M0
    186e:	40 27       	eor	r20, r16
	eor T1, M0
    1870:	50 27       	eor	r21, r16
	eor T2, M0 
    1872:	60 27       	eor	r22, r16
	mov r28, ST03
    1874:	c3 2d       	mov	r28, r3
	ld  M0, Y
    1876:	08 81       	ld	r16, Y
	eor T2, M0
    1878:	60 27       	eor	r22, r16
	eor T3, M0 ;1, 1, 3, 2 완료
    187a:	70 27       	eor	r23, r16

	mov ST10, T0
    187c:	44 2e       	mov	r4, r20
	mov ST11, T1
    187e:	55 2e       	mov	r5, r21
	mov ST03, M3
    1880:	33 2e       	mov	r3, r19
	//! 2번째 열 완료

	//! 3번째 열 시작
	mov r30, ST20 
    1882:	e8 2d       	mov	r30, r8
	ld  T0, Z 
    1884:	40 81       	ld	r20, Z
	mov T1, T0
    1886:	54 2f       	mov	r21, r20
	mov M3, T1 
    1888:	35 2f       	mov	r19, r21
	mov r28, ST20
    188a:	c8 2d       	mov	r28, r8
	ld  M0, Y
    188c:	08 81       	ld	r16, Y
	eor M3, M0 ; 2, 1, 1, 3 완료
    188e:	30 27       	eor	r19, r16

	mov r30, ST31
    1890:	ed 2d       	mov	r30, r13
	ld  r25, Z
    1892:	90 81       	ld	r25, Z
	eor M0, r25
    1894:	09 27       	eor	r16, r25
	eor T1, r25
    1896:	59 27       	eor	r21, r25
	eor M3, r25
    1898:	39 27       	eor	r19, r25
	mov r28, ST31
    189a:	cd 2d       	mov	r28, r13
	ld  r25, Y
    189c:	98 81       	ld	r25, Y
	eor M0, r25
    189e:	09 27       	eor	r16, r25
	eor T0, r25 ;3, 2, 2, 1 완료
    18a0:	49 27       	eor	r20, r25

	mov r30, ST02
    18a2:	e2 2d       	mov	r30, r2
	ld  r25, Z
    18a4:	90 81       	ld	r25, Z
	eor M0, r25
    18a6:	09 27       	eor	r16, r25
	eor T0, r25
    18a8:	49 27       	eor	r20, r25
	eor M3, r25
    18aa:	39 27       	eor	r19, r25
	mov r28, ST02
    18ac:	c2 2d       	mov	r28, r2
	ld  r25, Y
    18ae:	98 81       	ld	r25, Y
	eor T0, r25
    18b0:	49 27       	eor	r20, r25
	eor T1, r25;1, 3, 2, 1 완료
    18b2:	59 27       	eor	r21, r25

	mov r30, ST13
    18b4:	e7 2d       	mov	r30, r7
	ld  r25, Z
    18b6:	90 81       	ld	r25, Z
	eor M0, r25
    18b8:	09 27       	eor	r16, r25
	eor T0, r25
    18ba:	49 27       	eor	r20, r25
	eor T1, r25 
    18bc:	59 27       	eor	r21, r25
	mov r28, ST13
    18be:	c7 2d       	mov	r28, r7
	ld  r25, Y
    18c0:	98 81       	ld	r25, Y
	eor T1, r25
    18c2:	59 27       	eor	r21, r25
	eor M3, r25 ;1, 1, 3, 2 완료
    18c4:	39 27       	eor	r19, r25

	mov ST20, M0
    18c6:	80 2e       	mov	r8, r16
	mov ST21, T0
    18c8:	94 2e       	mov	r9, r20
	mov ST22, T1
    18ca:	a5 2e       	mov	r10, r21
	mov ST13, T3
    18cc:	77 2e       	mov	r7, r23
	//! 3번째 열 완료



	//! 4번째 열 시작
	mov r30, ST30 
    18ce:	ec 2d       	mov	r30, r12
	ld  T1, Z 
    18d0:	50 81       	ld	r21, Z
	mov T3, T1
    18d2:	75 2f       	mov	r23, r21
	mov r25, T3 
    18d4:	97 2f       	mov	r25, r23
	mov r28, ST30
    18d6:	cc 2d       	mov	r28, r12
	ld  T0, Y
    18d8:	48 81       	ld	r20, Y
	eor r25, T0 ; 2, 1, 1, 3 완료
    18da:	94 27       	eor	r25, r20

	mov r30, ST01
    18dc:	e1 2d       	mov	r30, r1
	ld  M0, Z
    18de:	00 81       	ld	r16, Z
	eor T0, M0
    18e0:	40 27       	eor	r20, r16
	eor T3, M0
    18e2:	70 27       	eor	r23, r16
	eor r25, M0 
    18e4:	90 27       	eor	r25, r16
	mov r28, ST01
    18e6:	c1 2d       	mov	r28, r1
	ld  M0, Y
    18e8:	08 81       	ld	r16, Y
	eor T0, M0
    18ea:	40 27       	eor	r20, r16
	eor T1, M0 ;3, 2, 2, 1 완료
    18ec:	50 27       	eor	r21, r16

	mov r30, ST12
    18ee:	e6 2d       	mov	r30, r6
	ld  M0, Z
    18f0:	00 81       	ld	r16, Z
	eor T0, M0
    18f2:	40 27       	eor	r20, r16
	eor T1, M0
    18f4:	50 27       	eor	r21, r16
	eor r25, M0 
    18f6:	90 27       	eor	r25, r16
	mov r28, ST12
    18f8:	c6 2d       	mov	r28, r6
	ld  M0, Y
    18fa:	08 81       	ld	r16, Y
	eor T1, M0
    18fc:	50 27       	eor	r21, r16
	eor T3, M0 ;1, 3, 2, 1 완료
    18fe:	70 27       	eor	r23, r16

	mov r30, ST23
    1900:	eb 2d       	mov	r30, r11
	ld  M0, Z
    1902:	00 81       	ld	r16, Z
	eor T0, M0
    1904:	40 27       	eor	r20, r16
	eor T1, M0
    1906:	50 27       	eor	r21, r16
	eor T3, M0 
    1908:	70 27       	eor	r23, r16
	mov r28, ST23
    190a:	cb 2d       	mov	r28, r11
	ld  M0, Y
    190c:	08 81       	ld	r16, Y
	eor T3, M0
    190e:	70 27       	eor	r23, r16
	eor r25, M0 ;1, 1, 3, 2 완료
    1910:	90 27       	eor	r25, r16

	mov ST30, T0
    1912:	c4 2e       	mov	r12, r20
	mov ST31, T1
    1914:	d5 2e       	mov	r13, r21
	mov ST32, T3
    1916:	e7 2e       	mov	r14, r23
	mov ST33, r25
    1918:	f9 2e       	mov	r15, r25
	mov ST01, M1
    191a:	11 2e       	mov	r1, r17
	mov ST02, M2
    191c:	22 2e       	mov	r2, r18
	mov ST12, T2
    191e:	66 2e       	mov	r6, r22
	mov ST23, M3
    1920:	b3 2e       	mov	r11, r19
	.irp row, 0, 1, 2, 3
		.irp col, 0, 1, 2, 3
			ld r16, X+
			eor ST\row\col, r16
		.endr
	.endr
    1922:	0d 91       	ld	r16, X+
    1924:	00 26       	eor	r0, r16
    1926:	0d 91       	ld	r16, X+
    1928:	10 26       	eor	r1, r16
    192a:	0d 91       	ld	r16, X+
    192c:	20 26       	eor	r2, r16
    192e:	0d 91       	ld	r16, X+
    1930:	30 26       	eor	r3, r16
    1932:	0d 91       	ld	r16, X+
    1934:	40 26       	eor	r4, r16
    1936:	0d 91       	ld	r16, X+
    1938:	50 26       	eor	r5, r16
    193a:	0d 91       	ld	r16, X+
    193c:	60 26       	eor	r6, r16
    193e:	0d 91       	ld	r16, X+
    1940:	70 26       	eor	r7, r16
    1942:	0d 91       	ld	r16, X+
    1944:	80 26       	eor	r8, r16
    1946:	0d 91       	ld	r16, X+
    1948:	90 26       	eor	r9, r16
    194a:	0d 91       	ld	r16, X+
    194c:	a0 26       	eor	r10, r16
    194e:	0d 91       	ld	r16, X+
    1950:	b0 26       	eor	r11, r16
    1952:	0d 91       	ld	r16, X+
    1954:	c0 26       	eor	r12, r16
    1956:	0d 91       	ld	r16, X+
    1958:	d0 26       	eor	r13, r16
    195a:	0d 91       	ld	r16, X+
    195c:	e0 26       	eor	r14, r16
    195e:	0d 91       	ld	r16, X+
    1960:	f0 26       	eor	r15, r16
	
	//7 Round------------------------------------------------------------------------------------------
	
	/* Shift Row and Subbyte , Mixcolumns */
	//! 1번째 열 시작
	mov r30, ST00 
    1962:	e0 2d       	mov	r30, r0
	ld  M1, Z 
    1964:	10 81       	ld	r17, Z
	mov M2, M1
    1966:	21 2f       	mov	r18, r17
	mov M3, M2 
    1968:	32 2f       	mov	r19, r18
	mov r28, ST00
    196a:	c0 2d       	mov	r28, r0
	ld  M0, Y
    196c:	08 81       	ld	r16, Y
	eor M3, M0 ; 2, 1, 1, 3 완료
    196e:	30 27       	eor	r19, r16

	mov r30, ST11
    1970:	e5 2d       	mov	r30, r5
	ld  T0, Z
    1972:	40 81       	ld	r20, Z
	eor M0, T0
    1974:	04 27       	eor	r16, r20
	eor M2, T0
    1976:	24 27       	eor	r18, r20
	eor M3, T0 
    1978:	34 27       	eor	r19, r20
	mov r28, ST11
    197a:	c5 2d       	mov	r28, r5
	ld  T0, Y
    197c:	48 81       	ld	r20, Y
	eor M0, T0
    197e:	04 27       	eor	r16, r20
	eor M1, T0 ;3, 2, 2, 1 완료
    1980:	14 27       	eor	r17, r20

	mov r30, ST22
    1982:	ea 2d       	mov	r30, r10
	ld  T0, Z
    1984:	40 81       	ld	r20, Z
	eor M0, T0
    1986:	04 27       	eor	r16, r20
	eor M1, T0
    1988:	14 27       	eor	r17, r20
	eor M3, T0
    198a:	34 27       	eor	r19, r20
	mov r28, ST22
    198c:	ca 2d       	mov	r28, r10
	ld  T0, Y
    198e:	48 81       	ld	r20, Y
	eor M1, T0
    1990:	14 27       	eor	r17, r20
	eor M2, T0 ;1, 3, 2, 1 완료
    1992:	24 27       	eor	r18, r20

	mov r30, ST33
    1994:	ef 2d       	mov	r30, r15
	ld  T0, Z
    1996:	40 81       	ld	r20, Z
	eor M0, T0
    1998:	04 27       	eor	r16, r20
	eor M1, T0
    199a:	14 27       	eor	r17, r20
	eor M2, T0 
    199c:	24 27       	eor	r18, r20
	mov r28, ST33
    199e:	cf 2d       	mov	r28, r15
	ld  T0, Y
    19a0:	48 81       	ld	r20, Y
	eor M2, T0
    19a2:	24 27       	eor	r18, r20
	eor M3, T0 ;1, 1, 3, 2 완료
    19a4:	34 27       	eor	r19, r20

	mov ST00, M0
    19a6:	00 2e       	mov	r0, r16
	//! 1번째 열 완료

	//! 2번째 열 시작
	mov r30, ST10 
    19a8:	e4 2d       	mov	r30, r4
	ld  T1, Z 
    19aa:	50 81       	ld	r21, Z
	mov T2, T1
    19ac:	65 2f       	mov	r22, r21
	mov T3, T2 
    19ae:	76 2f       	mov	r23, r22
	mov r28, ST10
    19b0:	c4 2d       	mov	r28, r4
	ld  T0, Y
    19b2:	48 81       	ld	r20, Y
	eor T3, T0 ; 2, 1, 1, 3 완료
    19b4:	74 27       	eor	r23, r20

	mov r30, ST21
    19b6:	e9 2d       	mov	r30, r9
	ld  M0, Z
    19b8:	00 81       	ld	r16, Z
	eor T0, M0
    19ba:	40 27       	eor	r20, r16
	eor T2, M0
    19bc:	60 27       	eor	r22, r16
	eor T3, M0 
    19be:	70 27       	eor	r23, r16
	mov r28, ST21
    19c0:	c9 2d       	mov	r28, r9
	ld  M0, Y
    19c2:	08 81       	ld	r16, Y
	eor T0, M0
    19c4:	40 27       	eor	r20, r16
	eor T1, M0 ;3, 2, 2, 1 완료
    19c6:	50 27       	eor	r21, r16

	mov r30, ST32
    19c8:	ee 2d       	mov	r30, r14
	ld  M0, Z
    19ca:	00 81       	ld	r16, Z
	eor T0, M0
    19cc:	40 27       	eor	r20, r16
	eor T1, M0
    19ce:	50 27       	eor	r21, r16
	eor T3, M0 
    19d0:	70 27       	eor	r23, r16
	mov r28, ST32
    19d2:	ce 2d       	mov	r28, r14
	ld  M0, Y
    19d4:	08 81       	ld	r16, Y
	eor T1, M0
    19d6:	50 27       	eor	r21, r16
	eor T2, M0 ;1, 3, 2, 1 완료
    19d8:	60 27       	eor	r22, r16

	mov r30, ST03
    19da:	e3 2d       	mov	r30, r3
	ld  M0, Z
    19dc:	00 81       	ld	r16, Z
	eor T0, M0
    19de:	40 27       	eor	r20, r16
	eor T1, M0
    19e0:	50 27       	eor	r21, r16
	eor T2, M0 
    19e2:	60 27       	eor	r22, r16
	mov r28, ST03
    19e4:	c3 2d       	mov	r28, r3
	ld  M0, Y
    19e6:	08 81       	ld	r16, Y
	eor T2, M0
    19e8:	60 27       	eor	r22, r16
	eor T3, M0 ;1, 1, 3, 2 완료
    19ea:	70 27       	eor	r23, r16

	mov ST10, T0
    19ec:	44 2e       	mov	r4, r20
	mov ST11, T1
    19ee:	55 2e       	mov	r5, r21
	mov ST03, M3
    19f0:	33 2e       	mov	r3, r19
	//! 2번째 열 완료

	//! 3번째 열 시작
	mov r30, ST20 
    19f2:	e8 2d       	mov	r30, r8
	ld  T0, Z 
    19f4:	40 81       	ld	r20, Z
	mov T1, T0
    19f6:	54 2f       	mov	r21, r20
	mov M3, T1 
    19f8:	35 2f       	mov	r19, r21
	mov r28, ST20
    19fa:	c8 2d       	mov	r28, r8
	ld  M0, Y
    19fc:	08 81       	ld	r16, Y
	eor M3, M0 ; 2, 1, 1, 3 완료
    19fe:	30 27       	eor	r19, r16

	mov r30, ST31
    1a00:	ed 2d       	mov	r30, r13
	ld  r25, Z
    1a02:	90 81       	ld	r25, Z
	eor M0, r25
    1a04:	09 27       	eor	r16, r25
	eor T1, r25
    1a06:	59 27       	eor	r21, r25
	eor M3, r25
    1a08:	39 27       	eor	r19, r25
	mov r28, ST31
    1a0a:	cd 2d       	mov	r28, r13
	ld  r25, Y
    1a0c:	98 81       	ld	r25, Y
	eor M0, r25
    1a0e:	09 27       	eor	r16, r25
	eor T0, r25 ;3, 2, 2, 1 완료
    1a10:	49 27       	eor	r20, r25

	mov r30, ST02
    1a12:	e2 2d       	mov	r30, r2
	ld  r25, Z
    1a14:	90 81       	ld	r25, Z
	eor M0, r25
    1a16:	09 27       	eor	r16, r25
	eor T0, r25
    1a18:	49 27       	eor	r20, r25
	eor M3, r25
    1a1a:	39 27       	eor	r19, r25
	mov r28, ST02
    1a1c:	c2 2d       	mov	r28, r2
	ld  r25, Y
    1a1e:	98 81       	ld	r25, Y
	eor T0, r25
    1a20:	49 27       	eor	r20, r25
	eor T1, r25;1, 3, 2, 1 완료
    1a22:	59 27       	eor	r21, r25

	mov r30, ST13
    1a24:	e7 2d       	mov	r30, r7
	ld  r25, Z
    1a26:	90 81       	ld	r25, Z
	eor M0, r25
    1a28:	09 27       	eor	r16, r25
	eor T0, r25
    1a2a:	49 27       	eor	r20, r25
	eor T1, r25 
    1a2c:	59 27       	eor	r21, r25
	mov r28, ST13
    1a2e:	c7 2d       	mov	r28, r7
	ld  r25, Y
    1a30:	98 81       	ld	r25, Y
	eor T1, r25
    1a32:	59 27       	eor	r21, r25
	eor M3, r25 ;1, 1, 3, 2 완료
    1a34:	39 27       	eor	r19, r25

	mov ST20, M0
    1a36:	80 2e       	mov	r8, r16
	mov ST21, T0
    1a38:	94 2e       	mov	r9, r20
	mov ST22, T1
    1a3a:	a5 2e       	mov	r10, r21
	mov ST13, T3
    1a3c:	77 2e       	mov	r7, r23
	//! 3번째 열 완료



	//! 4번째 열 시작
	mov r30, ST30 
    1a3e:	ec 2d       	mov	r30, r12
	ld  T1, Z 
    1a40:	50 81       	ld	r21, Z
	mov T3, T1
    1a42:	75 2f       	mov	r23, r21
	mov r25, T3 
    1a44:	97 2f       	mov	r25, r23
	mov r28, ST30
    1a46:	cc 2d       	mov	r28, r12
	ld  T0, Y
    1a48:	48 81       	ld	r20, Y
	eor r25, T0 ; 2, 1, 1, 3 완료
    1a4a:	94 27       	eor	r25, r20

	mov r30, ST01
    1a4c:	e1 2d       	mov	r30, r1
	ld  M0, Z
    1a4e:	00 81       	ld	r16, Z
	eor T0, M0
    1a50:	40 27       	eor	r20, r16
	eor T3, M0
    1a52:	70 27       	eor	r23, r16
	eor r25, M0 
    1a54:	90 27       	eor	r25, r16
	mov r28, ST01
    1a56:	c1 2d       	mov	r28, r1
	ld  M0, Y
    1a58:	08 81       	ld	r16, Y
	eor T0, M0
    1a5a:	40 27       	eor	r20, r16
	eor T1, M0 ;3, 2, 2, 1 완료
    1a5c:	50 27       	eor	r21, r16

	mov r30, ST12
    1a5e:	e6 2d       	mov	r30, r6
	ld  M0, Z
    1a60:	00 81       	ld	r16, Z
	eor T0, M0
    1a62:	40 27       	eor	r20, r16
	eor T1, M0
    1a64:	50 27       	eor	r21, r16
	eor r25, M0 
    1a66:	90 27       	eor	r25, r16
	mov r28, ST12
    1a68:	c6 2d       	mov	r28, r6
	ld  M0, Y
    1a6a:	08 81       	ld	r16, Y
	eor T1, M0
    1a6c:	50 27       	eor	r21, r16
	eor T3, M0 ;1, 3, 2, 1 완료
    1a6e:	70 27       	eor	r23, r16

	mov r30, ST23
    1a70:	eb 2d       	mov	r30, r11
	ld  M0, Z
    1a72:	00 81       	ld	r16, Z
	eor T0, M0
    1a74:	40 27       	eor	r20, r16
	eor T1, M0
    1a76:	50 27       	eor	r21, r16
	eor T3, M0 
    1a78:	70 27       	eor	r23, r16
	mov r28, ST23
    1a7a:	cb 2d       	mov	r28, r11
	ld  M0, Y
    1a7c:	08 81       	ld	r16, Y
	eor T3, M0
    1a7e:	70 27       	eor	r23, r16
	eor r25, M0 ;1, 1, 3, 2 완료
    1a80:	90 27       	eor	r25, r16

	mov ST30, T0
    1a82:	c4 2e       	mov	r12, r20
	mov ST31, T1
    1a84:	d5 2e       	mov	r13, r21
	mov ST32, T3
    1a86:	e7 2e       	mov	r14, r23
	mov ST33, r25
    1a88:	f9 2e       	mov	r15, r25
	mov ST01, M1
    1a8a:	11 2e       	mov	r1, r17
	mov ST02, M2
    1a8c:	22 2e       	mov	r2, r18
	mov ST12, T2
    1a8e:	66 2e       	mov	r6, r22
	mov ST23, M3
    1a90:	b3 2e       	mov	r11, r19
	.irp row, 0, 1, 2, 3
		.irp col, 0, 1, 2, 3
			ld r16, X+
			eor ST\row\col, r16
		.endr
	.endr
    1a92:	0d 91       	ld	r16, X+
    1a94:	00 26       	eor	r0, r16
    1a96:	0d 91       	ld	r16, X+
    1a98:	10 26       	eor	r1, r16
    1a9a:	0d 91       	ld	r16, X+
    1a9c:	20 26       	eor	r2, r16
    1a9e:	0d 91       	ld	r16, X+
    1aa0:	30 26       	eor	r3, r16
    1aa2:	0d 91       	ld	r16, X+
    1aa4:	40 26       	eor	r4, r16
    1aa6:	0d 91       	ld	r16, X+
    1aa8:	50 26       	eor	r5, r16
    1aaa:	0d 91       	ld	r16, X+
    1aac:	60 26       	eor	r6, r16
    1aae:	0d 91       	ld	r16, X+
    1ab0:	70 26       	eor	r7, r16
    1ab2:	0d 91       	ld	r16, X+
    1ab4:	80 26       	eor	r8, r16
    1ab6:	0d 91       	ld	r16, X+
    1ab8:	90 26       	eor	r9, r16
    1aba:	0d 91       	ld	r16, X+
    1abc:	a0 26       	eor	r10, r16
    1abe:	0d 91       	ld	r16, X+
    1ac0:	b0 26       	eor	r11, r16
    1ac2:	0d 91       	ld	r16, X+
    1ac4:	c0 26       	eor	r12, r16
    1ac6:	0d 91       	ld	r16, X+
    1ac8:	d0 26       	eor	r13, r16
    1aca:	0d 91       	ld	r16, X+
    1acc:	e0 26       	eor	r14, r16
    1ace:	0d 91       	ld	r16, X+
    1ad0:	f0 26       	eor	r15, r16
	
	//8 Round------------------------------------------------------------------------------------------
	
	/* Shift Row and Subbyte , Mixcolumns */
	//! 1번째 열 시작
	mov r30, ST00 
    1ad2:	e0 2d       	mov	r30, r0
	ld  M1, Z 
    1ad4:	10 81       	ld	r17, Z
	mov M2, M1
    1ad6:	21 2f       	mov	r18, r17
	mov M3, M2 
    1ad8:	32 2f       	mov	r19, r18
	mov r28, ST00
    1ada:	c0 2d       	mov	r28, r0
	ld  M0, Y
    1adc:	08 81       	ld	r16, Y
	eor M3, M0 ; 2, 1, 1, 3 완료
    1ade:	30 27       	eor	r19, r16

	mov r30, ST11
    1ae0:	e5 2d       	mov	r30, r5
	ld  T0, Z
    1ae2:	40 81       	ld	r20, Z
	eor M0, T0
    1ae4:	04 27       	eor	r16, r20
	eor M2, T0
    1ae6:	24 27       	eor	r18, r20
	eor M3, T0 
    1ae8:	34 27       	eor	r19, r20
	mov r28, ST11
    1aea:	c5 2d       	mov	r28, r5
	ld  T0, Y
    1aec:	48 81       	ld	r20, Y
	eor M0, T0
    1aee:	04 27       	eor	r16, r20
	eor M1, T0 ;3, 2, 2, 1 완료
    1af0:	14 27       	eor	r17, r20

	mov r30, ST22
    1af2:	ea 2d       	mov	r30, r10
	ld  T0, Z
    1af4:	40 81       	ld	r20, Z
	eor M0, T0
    1af6:	04 27       	eor	r16, r20
	eor M1, T0
    1af8:	14 27       	eor	r17, r20
	eor M3, T0
    1afa:	34 27       	eor	r19, r20
	mov r28, ST22
    1afc:	ca 2d       	mov	r28, r10
	ld  T0, Y
    1afe:	48 81       	ld	r20, Y
	eor M1, T0
    1b00:	14 27       	eor	r17, r20
	eor M2, T0 ;1, 3, 2, 1 완료
    1b02:	24 27       	eor	r18, r20

	mov r30, ST33
    1b04:	ef 2d       	mov	r30, r15
	ld  T0, Z
    1b06:	40 81       	ld	r20, Z
	eor M0, T0
    1b08:	04 27       	eor	r16, r20
	eor M1, T0
    1b0a:	14 27       	eor	r17, r20
	eor M2, T0 
    1b0c:	24 27       	eor	r18, r20
	mov r28, ST33
    1b0e:	cf 2d       	mov	r28, r15
	ld  T0, Y
    1b10:	48 81       	ld	r20, Y
	eor M2, T0
    1b12:	24 27       	eor	r18, r20
	eor M3, T0 ;1, 1, 3, 2 완료
    1b14:	34 27       	eor	r19, r20

	mov ST00, M0
    1b16:	00 2e       	mov	r0, r16
	//! 1번째 열 완료

	//! 2번째 열 시작
	mov r30, ST10 
    1b18:	e4 2d       	mov	r30, r4
	ld  T1, Z 
    1b1a:	50 81       	ld	r21, Z
	mov T2, T1
    1b1c:	65 2f       	mov	r22, r21
	mov T3, T2 
    1b1e:	76 2f       	mov	r23, r22
	mov r28, ST10
    1b20:	c4 2d       	mov	r28, r4
	ld  T0, Y
    1b22:	48 81       	ld	r20, Y
	eor T3, T0 ; 2, 1, 1, 3 완료
    1b24:	74 27       	eor	r23, r20

	mov r30, ST21
    1b26:	e9 2d       	mov	r30, r9
	ld  M0, Z
    1b28:	00 81       	ld	r16, Z
	eor T0, M0
    1b2a:	40 27       	eor	r20, r16
	eor T2, M0
    1b2c:	60 27       	eor	r22, r16
	eor T3, M0 
    1b2e:	70 27       	eor	r23, r16
	mov r28, ST21
    1b30:	c9 2d       	mov	r28, r9
	ld  M0, Y
    1b32:	08 81       	ld	r16, Y
	eor T0, M0
    1b34:	40 27       	eor	r20, r16
	eor T1, M0 ;3, 2, 2, 1 완료
    1b36:	50 27       	eor	r21, r16

	mov r30, ST32
    1b38:	ee 2d       	mov	r30, r14
	ld  M0, Z
    1b3a:	00 81       	ld	r16, Z
	eor T0, M0
    1b3c:	40 27       	eor	r20, r16
	eor T1, M0
    1b3e:	50 27       	eor	r21, r16
	eor T3, M0 
    1b40:	70 27       	eor	r23, r16
	mov r28, ST32
    1b42:	ce 2d       	mov	r28, r14
	ld  M0, Y
    1b44:	08 81       	ld	r16, Y
	eor T1, M0
    1b46:	50 27       	eor	r21, r16
	eor T2, M0 ;1, 3, 2, 1 완료
    1b48:	60 27       	eor	r22, r16

	mov r30, ST03
    1b4a:	e3 2d       	mov	r30, r3
	ld  M0, Z
    1b4c:	00 81       	ld	r16, Z
	eor T0, M0
    1b4e:	40 27       	eor	r20, r16
	eor T1, M0
    1b50:	50 27       	eor	r21, r16
	eor T2, M0 
    1b52:	60 27       	eor	r22, r16
	mov r28, ST03
    1b54:	c3 2d       	mov	r28, r3
	ld  M0, Y
    1b56:	08 81       	ld	r16, Y
	eor T2, M0
    1b58:	60 27       	eor	r22, r16
	eor T3, M0 ;1, 1, 3, 2 완료
    1b5a:	70 27       	eor	r23, r16

	mov ST10, T0
    1b5c:	44 2e       	mov	r4, r20
	mov ST11, T1
    1b5e:	55 2e       	mov	r5, r21
	mov ST03, M3
    1b60:	33 2e       	mov	r3, r19
	//! 2번째 열 완료

	//! 3번째 열 시작
	mov r30, ST20 
    1b62:	e8 2d       	mov	r30, r8
	ld  T0, Z 
    1b64:	40 81       	ld	r20, Z
	mov T1, T0
    1b66:	54 2f       	mov	r21, r20
	mov M3, T1 
    1b68:	35 2f       	mov	r19, r21
	mov r28, ST20
    1b6a:	c8 2d       	mov	r28, r8
	ld  M0, Y
    1b6c:	08 81       	ld	r16, Y
	eor M3, M0 ; 2, 1, 1, 3 완료
    1b6e:	30 27       	eor	r19, r16

	mov r30, ST31
    1b70:	ed 2d       	mov	r30, r13
	ld  r25, Z
    1b72:	90 81       	ld	r25, Z
	eor M0, r25
    1b74:	09 27       	eor	r16, r25
	eor T1, r25
    1b76:	59 27       	eor	r21, r25
	eor M3, r25
    1b78:	39 27       	eor	r19, r25
	mov r28, ST31
    1b7a:	cd 2d       	mov	r28, r13
	ld  r25, Y
    1b7c:	98 81       	ld	r25, Y
	eor M0, r25
    1b7e:	09 27       	eor	r16, r25
	eor T0, r25 ;3, 2, 2, 1 완료
    1b80:	49 27       	eor	r20, r25

	mov r30, ST02
    1b82:	e2 2d       	mov	r30, r2
	ld  r25, Z
    1b84:	90 81       	ld	r25, Z
	eor M0, r25
    1b86:	09 27       	eor	r16, r25
	eor T0, r25
    1b88:	49 27       	eor	r20, r25
	eor M3, r25
    1b8a:	39 27       	eor	r19, r25
	mov r28, ST02
    1b8c:	c2 2d       	mov	r28, r2
	ld  r25, Y
    1b8e:	98 81       	ld	r25, Y
	eor T0, r25
    1b90:	49 27       	eor	r20, r25
	eor T1, r25;1, 3, 2, 1 완료
    1b92:	59 27       	eor	r21, r25

	mov r30, ST13
    1b94:	e7 2d       	mov	r30, r7
	ld  r25, Z
    1b96:	90 81       	ld	r25, Z
	eor M0, r25
    1b98:	09 27       	eor	r16, r25
	eor T0, r25
    1b9a:	49 27       	eor	r20, r25
	eor T1, r25 
    1b9c:	59 27       	eor	r21, r25
	mov r28, ST13
    1b9e:	c7 2d       	mov	r28, r7
	ld  r25, Y
    1ba0:	98 81       	ld	r25, Y
	eor T1, r25
    1ba2:	59 27       	eor	r21, r25
	eor M3, r25 ;1, 1, 3, 2 완료
    1ba4:	39 27       	eor	r19, r25

	mov ST20, M0
    1ba6:	80 2e       	mov	r8, r16
	mov ST21, T0
    1ba8:	94 2e       	mov	r9, r20
	mov ST22, T1
    1baa:	a5 2e       	mov	r10, r21
	mov ST13, T3
    1bac:	77 2e       	mov	r7, r23
	//! 3번째 열 완료



	//! 4번째 열 시작
	mov r30, ST30 
    1bae:	ec 2d       	mov	r30, r12
	ld  T1, Z 
    1bb0:	50 81       	ld	r21, Z
	mov T3, T1
    1bb2:	75 2f       	mov	r23, r21
	mov r25, T3 
    1bb4:	97 2f       	mov	r25, r23
	mov r28, ST30
    1bb6:	cc 2d       	mov	r28, r12
	ld  T0, Y
    1bb8:	48 81       	ld	r20, Y
	eor r25, T0 ; 2, 1, 1, 3 완료
    1bba:	94 27       	eor	r25, r20

	mov r30, ST01
    1bbc:	e1 2d       	mov	r30, r1
	ld  M0, Z
    1bbe:	00 81       	ld	r16, Z
	eor T0, M0
    1bc0:	40 27       	eor	r20, r16
	eor T3, M0
    1bc2:	70 27       	eor	r23, r16
	eor r25, M0 
    1bc4:	90 27       	eor	r25, r16
	mov r28, ST01
    1bc6:	c1 2d       	mov	r28, r1
	ld  M0, Y
    1bc8:	08 81       	ld	r16, Y
	eor T0, M0
    1bca:	40 27       	eor	r20, r16
	eor T1, M0 ;3, 2, 2, 1 완료
    1bcc:	50 27       	eor	r21, r16

	mov r30, ST12
    1bce:	e6 2d       	mov	r30, r6
	ld  M0, Z
    1bd0:	00 81       	ld	r16, Z
	eor T0, M0
    1bd2:	40 27       	eor	r20, r16
	eor T1, M0
    1bd4:	50 27       	eor	r21, r16
	eor r25, M0 
    1bd6:	90 27       	eor	r25, r16
	mov r28, ST12
    1bd8:	c6 2d       	mov	r28, r6
	ld  M0, Y
    1bda:	08 81       	ld	r16, Y
	eor T1, M0
    1bdc:	50 27       	eor	r21, r16
	eor T3, M0 ;1, 3, 2, 1 완료
    1bde:	70 27       	eor	r23, r16

	mov r30, ST23
    1be0:	eb 2d       	mov	r30, r11
	ld  M0, Z
    1be2:	00 81       	ld	r16, Z
	eor T0, M0
    1be4:	40 27       	eor	r20, r16
	eor T1, M0
    1be6:	50 27       	eor	r21, r16
	eor T3, M0 
    1be8:	70 27       	eor	r23, r16
	mov r28, ST23
    1bea:	cb 2d       	mov	r28, r11
	ld  M0, Y
    1bec:	08 81       	ld	r16, Y
	eor T3, M0
    1bee:	70 27       	eor	r23, r16
	eor r25, M0 ;1, 1, 3, 2 완료
    1bf0:	90 27       	eor	r25, r16

	mov ST30, T0
    1bf2:	c4 2e       	mov	r12, r20
	mov ST31, T1
    1bf4:	d5 2e       	mov	r13, r21
	mov ST32, T3
    1bf6:	e7 2e       	mov	r14, r23
	mov ST33, r25
    1bf8:	f9 2e       	mov	r15, r25
	mov ST01, M1
    1bfa:	11 2e       	mov	r1, r17
	mov ST02, M2
    1bfc:	22 2e       	mov	r2, r18
	mov ST12, T2
    1bfe:	66 2e       	mov	r6, r22
	mov ST23, M3
    1c00:	b3 2e       	mov	r11, r19
	.irp row, 0, 1, 2, 3
		.irp col, 0, 1, 2, 3
			ld r16, X+
			eor ST\row\col, r16
		.endr
	.endr
    1c02:	0d 91       	ld	r16, X+
    1c04:	00 26       	eor	r0, r16
    1c06:	0d 91       	ld	r16, X+
    1c08:	10 26       	eor	r1, r16
    1c0a:	0d 91       	ld	r16, X+
    1c0c:	20 26       	eor	r2, r16
    1c0e:	0d 91       	ld	r16, X+
    1c10:	30 26       	eor	r3, r16
    1c12:	0d 91       	ld	r16, X+
    1c14:	40 26       	eor	r4, r16
    1c16:	0d 91       	ld	r16, X+
    1c18:	50 26       	eor	r5, r16
    1c1a:	0d 91       	ld	r16, X+
    1c1c:	60 26       	eor	r6, r16
    1c1e:	0d 91       	ld	r16, X+
    1c20:	70 26       	eor	r7, r16
    1c22:	0d 91       	ld	r16, X+
    1c24:	80 26       	eor	r8, r16
    1c26:	0d 91       	ld	r16, X+
    1c28:	90 26       	eor	r9, r16
    1c2a:	0d 91       	ld	r16, X+
    1c2c:	a0 26       	eor	r10, r16
    1c2e:	0d 91       	ld	r16, X+
    1c30:	b0 26       	eor	r11, r16
    1c32:	0d 91       	ld	r16, X+
    1c34:	c0 26       	eor	r12, r16
    1c36:	0d 91       	ld	r16, X+
    1c38:	d0 26       	eor	r13, r16
    1c3a:	0d 91       	ld	r16, X+
    1c3c:	e0 26       	eor	r14, r16
    1c3e:	0d 91       	ld	r16, X+
    1c40:	f0 26       	eor	r15, r16
	
	//9 Round------------------------------------------------------------------------------------------
	
	/* Shift Row and Subbyte , Mixcolumns */
	//! 1번째 열 시작
	mov r30, ST00 
    1c42:	e0 2d       	mov	r30, r0
	ld  M1, Z 
    1c44:	10 81       	ld	r17, Z
	mov M2, M1
    1c46:	21 2f       	mov	r18, r17
	mov M3, M2 
    1c48:	32 2f       	mov	r19, r18
	mov r28, ST00
    1c4a:	c0 2d       	mov	r28, r0
	ld  M0, Y
    1c4c:	08 81       	ld	r16, Y
	eor M3, M0 ; 2, 1, 1, 3 완료
    1c4e:	30 27       	eor	r19, r16

	mov r30, ST11
    1c50:	e5 2d       	mov	r30, r5
	ld  T0, Z
    1c52:	40 81       	ld	r20, Z
	eor M0, T0
    1c54:	04 27       	eor	r16, r20
	eor M2, T0
    1c56:	24 27       	eor	r18, r20
	eor M3, T0 
    1c58:	34 27       	eor	r19, r20
	mov r28, ST11
    1c5a:	c5 2d       	mov	r28, r5
	ld  T0, Y
    1c5c:	48 81       	ld	r20, Y
	eor M0, T0
    1c5e:	04 27       	eor	r16, r20
	eor M1, T0 ;3, 2, 2, 1 완료
    1c60:	14 27       	eor	r17, r20

	mov r30, ST22
    1c62:	ea 2d       	mov	r30, r10
	ld  T0, Z
    1c64:	40 81       	ld	r20, Z
	eor M0, T0
    1c66:	04 27       	eor	r16, r20
	eor M1, T0
    1c68:	14 27       	eor	r17, r20
	eor M3, T0
    1c6a:	34 27       	eor	r19, r20
	mov r28, ST22
    1c6c:	ca 2d       	mov	r28, r10
	ld  T0, Y
    1c6e:	48 81       	ld	r20, Y
	eor M1, T0
    1c70:	14 27       	eor	r17, r20
	eor M2, T0 ;1, 3, 2, 1 완료
    1c72:	24 27       	eor	r18, r20

	mov r30, ST33
    1c74:	ef 2d       	mov	r30, r15
	ld  T0, Z
    1c76:	40 81       	ld	r20, Z
	eor M0, T0
    1c78:	04 27       	eor	r16, r20
	eor M1, T0
    1c7a:	14 27       	eor	r17, r20
	eor M2, T0 
    1c7c:	24 27       	eor	r18, r20
	mov r28, ST33
    1c7e:	cf 2d       	mov	r28, r15
	ld  T0, Y
    1c80:	48 81       	ld	r20, Y
	eor M2, T0
    1c82:	24 27       	eor	r18, r20
	eor M3, T0 ;1, 1, 3, 2 완료
    1c84:	34 27       	eor	r19, r20

	mov ST00, M0
    1c86:	00 2e       	mov	r0, r16
	//! 1번째 열 완료

	//! 2번째 열 시작
	mov r30, ST10 
    1c88:	e4 2d       	mov	r30, r4
	ld  T1, Z 
    1c8a:	50 81       	ld	r21, Z
	mov T2, T1
    1c8c:	65 2f       	mov	r22, r21
	mov T3, T2 
    1c8e:	76 2f       	mov	r23, r22
	mov r28, ST10
    1c90:	c4 2d       	mov	r28, r4
	ld  T0, Y
    1c92:	48 81       	ld	r20, Y
	eor T3, T0 ; 2, 1, 1, 3 완료
    1c94:	74 27       	eor	r23, r20

	mov r30, ST21
    1c96:	e9 2d       	mov	r30, r9
	ld  M0, Z
    1c98:	00 81       	ld	r16, Z
	eor T0, M0
    1c9a:	40 27       	eor	r20, r16
	eor T2, M0
    1c9c:	60 27       	eor	r22, r16
	eor T3, M0 
    1c9e:	70 27       	eor	r23, r16
	mov r28, ST21
    1ca0:	c9 2d       	mov	r28, r9
	ld  M0, Y
    1ca2:	08 81       	ld	r16, Y
	eor T0, M0
    1ca4:	40 27       	eor	r20, r16
	eor T1, M0 ;3, 2, 2, 1 완료
    1ca6:	50 27       	eor	r21, r16

	mov r30, ST32
    1ca8:	ee 2d       	mov	r30, r14
	ld  M0, Z
    1caa:	00 81       	ld	r16, Z
	eor T0, M0
    1cac:	40 27       	eor	r20, r16
	eor T1, M0
    1cae:	50 27       	eor	r21, r16
	eor T3, M0 
    1cb0:	70 27       	eor	r23, r16
	mov r28, ST32
    1cb2:	ce 2d       	mov	r28, r14
	ld  M0, Y
    1cb4:	08 81       	ld	r16, Y
	eor T1, M0
    1cb6:	50 27       	eor	r21, r16
	eor T2, M0 ;1, 3, 2, 1 완료
    1cb8:	60 27       	eor	r22, r16

	mov r30, ST03
    1cba:	e3 2d       	mov	r30, r3
	ld  M0, Z
    1cbc:	00 81       	ld	r16, Z
	eor T0, M0
    1cbe:	40 27       	eor	r20, r16
	eor T1, M0
    1cc0:	50 27       	eor	r21, r16
	eor T2, M0 
    1cc2:	60 27       	eor	r22, r16
	mov r28, ST03
    1cc4:	c3 2d       	mov	r28, r3
	ld  M0, Y
    1cc6:	08 81       	ld	r16, Y
	eor T2, M0
    1cc8:	60 27       	eor	r22, r16
	eor T3, M0 ;1, 1, 3, 2 완료
    1cca:	70 27       	eor	r23, r16

	mov ST10, T0
    1ccc:	44 2e       	mov	r4, r20
	mov ST11, T1
    1cce:	55 2e       	mov	r5, r21
	mov ST03, M3
    1cd0:	33 2e       	mov	r3, r19
	//! 2번째 열 완료

	//! 3번째 열 시작
	mov r30, ST20 
    1cd2:	e8 2d       	mov	r30, r8
	ld  T0, Z 
    1cd4:	40 81       	ld	r20, Z
	mov T1, T0
    1cd6:	54 2f       	mov	r21, r20
	mov M3, T1 
    1cd8:	35 2f       	mov	r19, r21
	mov r28, ST20
    1cda:	c8 2d       	mov	r28, r8
	ld  M0, Y
    1cdc:	08 81       	ld	r16, Y
	eor M3, M0 ; 2, 1, 1, 3 완료
    1cde:	30 27       	eor	r19, r16

	mov r30, ST31
    1ce0:	ed 2d       	mov	r30, r13
	ld  r25, Z
    1ce2:	90 81       	ld	r25, Z
	eor M0, r25
    1ce4:	09 27       	eor	r16, r25
	eor T1, r25
    1ce6:	59 27       	eor	r21, r25
	eor M3, r25
    1ce8:	39 27       	eor	r19, r25
	mov r28, ST31
    1cea:	cd 2d       	mov	r28, r13
	ld  r25, Y
    1cec:	98 81       	ld	r25, Y
	eor M0, r25
    1cee:	09 27       	eor	r16, r25
	eor T0, r25 ;3, 2, 2, 1 완료
    1cf0:	49 27       	eor	r20, r25

	mov r30, ST02
    1cf2:	e2 2d       	mov	r30, r2
	ld  r25, Z
    1cf4:	90 81       	ld	r25, Z
	eor M0, r25
    1cf6:	09 27       	eor	r16, r25
	eor T0, r25
    1cf8:	49 27       	eor	r20, r25
	eor M3, r25
    1cfa:	39 27       	eor	r19, r25
	mov r28, ST02
    1cfc:	c2 2d       	mov	r28, r2
	ld  r25, Y
    1cfe:	98 81       	ld	r25, Y
	eor T0, r25
    1d00:	49 27       	eor	r20, r25
	eor T1, r25;1, 3, 2, 1 완료
    1d02:	59 27       	eor	r21, r25

	mov r30, ST13
    1d04:	e7 2d       	mov	r30, r7
	ld  r25, Z
    1d06:	90 81       	ld	r25, Z
	eor M0, r25
    1d08:	09 27       	eor	r16, r25
	eor T0, r25
    1d0a:	49 27       	eor	r20, r25
	eor T1, r25 
    1d0c:	59 27       	eor	r21, r25
	mov r28, ST13
    1d0e:	c7 2d       	mov	r28, r7
	ld  r25, Y
    1d10:	98 81       	ld	r25, Y
	eor T1, r25
    1d12:	59 27       	eor	r21, r25
	eor M3, r25 ;1, 1, 3, 2 완료
    1d14:	39 27       	eor	r19, r25

	mov ST20, M0
    1d16:	80 2e       	mov	r8, r16
	mov ST21, T0
    1d18:	94 2e       	mov	r9, r20
	mov ST22, T1
    1d1a:	a5 2e       	mov	r10, r21
	mov ST13, T3
    1d1c:	77 2e       	mov	r7, r23
	//! 3번째 열 완료



	//! 4번째 열 시작
	mov r30, ST30 
    1d1e:	ec 2d       	mov	r30, r12
	ld  T1, Z 
    1d20:	50 81       	ld	r21, Z
	mov T3, T1
    1d22:	75 2f       	mov	r23, r21
	mov r25, T3 
    1d24:	97 2f       	mov	r25, r23
	mov r28, ST30
    1d26:	cc 2d       	mov	r28, r12
	ld  T0, Y
    1d28:	48 81       	ld	r20, Y
	eor r25, T0 ; 2, 1, 1, 3 완료
    1d2a:	94 27       	eor	r25, r20

	mov r30, ST01
    1d2c:	e1 2d       	mov	r30, r1
	ld  M0, Z
    1d2e:	00 81       	ld	r16, Z
	eor T0, M0
    1d30:	40 27       	eor	r20, r16
	eor T3, M0
    1d32:	70 27       	eor	r23, r16
	eor r25, M0 
    1d34:	90 27       	eor	r25, r16
	mov r28, ST01
    1d36:	c1 2d       	mov	r28, r1
	ld  M0, Y
    1d38:	08 81       	ld	r16, Y
	eor T0, M0
    1d3a:	40 27       	eor	r20, r16
	eor T1, M0 ;3, 2, 2, 1 완료
    1d3c:	50 27       	eor	r21, r16

	mov r30, ST12
    1d3e:	e6 2d       	mov	r30, r6
	ld  M0, Z
    1d40:	00 81       	ld	r16, Z
	eor T0, M0
    1d42:	40 27       	eor	r20, r16
	eor T1, M0
    1d44:	50 27       	eor	r21, r16
	eor r25, M0 
    1d46:	90 27       	eor	r25, r16
	mov r28, ST12
    1d48:	c6 2d       	mov	r28, r6
	ld  M0, Y
    1d4a:	08 81       	ld	r16, Y
	eor T1, M0
    1d4c:	50 27       	eor	r21, r16
	eor T3, M0 ;1, 3, 2, 1 완료
    1d4e:	70 27       	eor	r23, r16

	mov r30, ST23
    1d50:	eb 2d       	mov	r30, r11
	ld  M0, Z
    1d52:	00 81       	ld	r16, Z
	eor T0, M0
    1d54:	40 27       	eor	r20, r16
	eor T1, M0
    1d56:	50 27       	eor	r21, r16
	eor T3, M0 
    1d58:	70 27       	eor	r23, r16
	mov r28, ST23
    1d5a:	cb 2d       	mov	r28, r11
	ld  M0, Y
    1d5c:	08 81       	ld	r16, Y
	eor T3, M0
    1d5e:	70 27       	eor	r23, r16
	eor r25, M0 ;1, 1, 3, 2 완료
    1d60:	90 27       	eor	r25, r16

	mov ST30, T0
    1d62:	c4 2e       	mov	r12, r20
	mov ST31, T1
    1d64:	d5 2e       	mov	r13, r21
	mov ST32, T3
    1d66:	e7 2e       	mov	r14, r23
	mov ST33, r25
    1d68:	f9 2e       	mov	r15, r25
	mov ST01, M1
    1d6a:	11 2e       	mov	r1, r17
	mov ST02, M2
    1d6c:	22 2e       	mov	r2, r18
	mov ST12, T2
    1d6e:	66 2e       	mov	r6, r22
	mov ST23, M3
    1d70:	b3 2e       	mov	r11, r19
	.irp row, 0, 1, 2, 3
		.irp col, 0, 1, 2, 3
			ld r16, X+
			eor ST\row\col, r16
		.endr
	.endr
    1d72:	0d 91       	ld	r16, X+
    1d74:	00 26       	eor	r0, r16
    1d76:	0d 91       	ld	r16, X+
    1d78:	10 26       	eor	r1, r16
    1d7a:	0d 91       	ld	r16, X+
    1d7c:	20 26       	eor	r2, r16
    1d7e:	0d 91       	ld	r16, X+
    1d80:	30 26       	eor	r3, r16
    1d82:	0d 91       	ld	r16, X+
    1d84:	40 26       	eor	r4, r16
    1d86:	0d 91       	ld	r16, X+
    1d88:	50 26       	eor	r5, r16
    1d8a:	0d 91       	ld	r16, X+
    1d8c:	60 26       	eor	r6, r16
    1d8e:	0d 91       	ld	r16, X+
    1d90:	70 26       	eor	r7, r16
    1d92:	0d 91       	ld	r16, X+
    1d94:	80 26       	eor	r8, r16
    1d96:	0d 91       	ld	r16, X+
    1d98:	90 26       	eor	r9, r16
    1d9a:	0d 91       	ld	r16, X+
    1d9c:	a0 26       	eor	r10, r16
    1d9e:	0d 91       	ld	r16, X+
    1da0:	b0 26       	eor	r11, r16
    1da2:	0d 91       	ld	r16, X+
    1da4:	c0 26       	eor	r12, r16
    1da6:	0d 91       	ld	r16, X+
    1da8:	d0 26       	eor	r13, r16
    1daa:	0d 91       	ld	r16, X+
    1dac:	e0 26       	eor	r14, r16
    1dae:	0d 91       	ld	r16, X+
    1db0:	f0 26       	eor	r15, r16
	


	// 10 Round--------------------------------------------------------------------------------------------
	// Shift Row + Subbyte
	mov r30, ST00
    1db2:	e0 2d       	mov	r30, r0
	ld ST00, Z
    1db4:	00 80       	ld	r0, Z
	mov r30, ST10
    1db6:	e4 2d       	mov	r30, r4
	ld ST10, Z
    1db8:	40 80       	ld	r4, Z
	mov r30, ST20
    1dba:	e8 2d       	mov	r30, r8
	ld ST20, Z
    1dbc:	80 80       	ld	r8, Z
	mov r30, ST30
    1dbe:	ec 2d       	mov	r30, r12
	ld ST30, Z
    1dc0:	c0 80       	ld	r12, Z

	mov r30, ST01
    1dc2:	e1 2d       	mov	r30, r1
	ld T0, Z
    1dc4:	40 81       	ld	r20, Z
	mov r30, ST11
    1dc6:	e5 2d       	mov	r30, r5
	ld ST01, Z
    1dc8:	10 80       	ld	r1, Z
	mov r30, ST21
    1dca:	e9 2d       	mov	r30, r9
	ld ST11, Z
    1dcc:	50 80       	ld	r5, Z
	mov r30, ST31
    1dce:	ed 2d       	mov	r30, r13
	ld ST21, Z
    1dd0:	90 80       	ld	r9, Z
	mov ST31, T0
    1dd2:	d4 2e       	mov	r13, r20

	mov r30, ST02
    1dd4:	e2 2d       	mov	r30, r2
	ld T0, Z
    1dd6:	40 81       	ld	r20, Z
	mov r30, ST12
    1dd8:	e6 2d       	mov	r30, r6
	ld T1, Z
    1dda:	50 81       	ld	r21, Z
	mov r30, ST22
    1ddc:	ea 2d       	mov	r30, r10
	ld ST02, Z
    1dde:	20 80       	ld	r2, Z
	mov r30, ST32
    1de0:	ee 2d       	mov	r30, r14
	ld ST12, Z
    1de2:	60 80       	ld	r6, Z
	mov ST22, T0
    1de4:	a4 2e       	mov	r10, r20
	mov ST32, T1
    1de6:	e5 2e       	mov	r14, r21

	mov r30, ST03
    1de8:	e3 2d       	mov	r30, r3
	ld T0, Z
    1dea:	40 81       	ld	r20, Z
	mov r30, ST33
    1dec:	ef 2d       	mov	r30, r15
	ld  ST03, Z
    1dee:	30 80       	ld	r3, Z
	mov r30, ST23
    1df0:	eb 2d       	mov	r30, r11
	ld ST33, Z
    1df2:	f0 80       	ld	r15, Z
	mov r30, ST13
    1df4:	e7 2d       	mov	r30, r7
	ld ST23, Z
    1df6:	b0 80       	ld	r11, Z
	mov ST13, T0
    1df8:	74 2e       	mov	r7, r20
	.irp row, 0, 1, 2, 3
		.irp col, 0, 1, 2, 3
			ld r16, X+
			eor ST\row\col, r16
		.endr
	.endr
    1dfa:	0d 91       	ld	r16, X+
    1dfc:	00 26       	eor	r0, r16
    1dfe:	0d 91       	ld	r16, X+
    1e00:	10 26       	eor	r1, r16
    1e02:	0d 91       	ld	r16, X+
    1e04:	20 26       	eor	r2, r16
    1e06:	0d 91       	ld	r16, X+
    1e08:	30 26       	eor	r3, r16
    1e0a:	0d 91       	ld	r16, X+
    1e0c:	40 26       	eor	r4, r16
    1e0e:	0d 91       	ld	r16, X+
    1e10:	50 26       	eor	r5, r16
    1e12:	0d 91       	ld	r16, X+
    1e14:	60 26       	eor	r6, r16
    1e16:	0d 91       	ld	r16, X+
    1e18:	70 26       	eor	r7, r16
    1e1a:	0d 91       	ld	r16, X+
    1e1c:	80 26       	eor	r8, r16
    1e1e:	0d 91       	ld	r16, X+
    1e20:	90 26       	eor	r9, r16
    1e22:	0d 91       	ld	r16, X+
    1e24:	a0 26       	eor	r10, r16
    1e26:	0d 91       	ld	r16, X+
    1e28:	b0 26       	eor	r11, r16
    1e2a:	0d 91       	ld	r16, X+
    1e2c:	c0 26       	eor	r12, r16
    1e2e:	0d 91       	ld	r16, X+
    1e30:	d0 26       	eor	r13, r16
    1e32:	0d 91       	ld	r16, X+
    1e34:	e0 26       	eor	r14, r16
    1e36:	0d 91       	ld	r16, X+
    1e38:	f0 26       	eor	r15, r16

	//ST
	pop r21
    1e3a:	5f 91       	pop	r21
	pop r20
    1e3c:	4f 91       	pop	r20
	pop r27
    1e3e:	bf 91       	pop	r27
	pop r26
    1e40:	af 91       	pop	r26
	pop r25
    1e42:	9f 91       	pop	r25
	pop r24
    1e44:	8f 91       	pop	r24
	.irp row, 0, 1, 2, 3
			.irp col, 0, 1, 2, 3
			st Z+, ST\row\col
		.endr
	.endr
    1e46:	01 92       	st	Z+, r0
    1e48:	11 92       	st	Z+, r1
    1e4a:	21 92       	st	Z+, r2
    1e4c:	31 92       	st	Z+, r3
    1e4e:	41 92       	st	Z+, r4
    1e50:	51 92       	st	Z+, r5
    1e52:	61 92       	st	Z+, r6
    1e54:	71 92       	st	Z+, r7
    1e56:	81 92       	st	Z+, r8
    1e58:	91 92       	st	Z+, r9
    1e5a:	a1 92       	st	Z+, r10
    1e5c:	b1 92       	st	Z+, r11
    1e5e:	c1 92       	st	Z+, r12
    1e60:	d1 92       	st	Z+, r13
    1e62:	e1 92       	st	Z+, r14
    1e64:	f1 92       	st	Z+, r15
	pop r29
    1e66:	df 91       	pop	r29
	pop r28
    1e68:	cf 91       	pop	r28
	pop r30
    1e6a:	ef 91       	pop	r30
	pop r31
    1e6c:	ff 91       	pop	r31

	pop_range 2, 25
    1e6e:	9f 91       	pop	r25
    1e70:	8f 91       	pop	r24
    1e72:	7f 91       	pop	r23
    1e74:	6f 91       	pop	r22
    1e76:	5f 91       	pop	r21
    1e78:	4f 91       	pop	r20
    1e7a:	3f 91       	pop	r19
    1e7c:	2f 91       	pop	r18
    1e7e:	1f 91       	pop	r17
    1e80:	0f 91       	pop	r16
    1e82:	ff 90       	pop	r15
    1e84:	ef 90       	pop	r14
    1e86:	df 90       	pop	r13
    1e88:	cf 90       	pop	r12
    1e8a:	bf 90       	pop	r11
    1e8c:	af 90       	pop	r10
    1e8e:	9f 90       	pop	r9
    1e90:	8f 90       	pop	r8
    1e92:	7f 90       	pop	r7
    1e94:	6f 90       	pop	r6
    1e96:	5f 90       	pop	r5
    1e98:	4f 90       	pop	r4
    1e9a:	3f 90       	pop	r3
    1e9c:	2f 90       	pop	r2
	ret
    1e9e:	08 95       	ret

00001ea0 <aes256_init>:
﻿#include "avr-asm-macros.S"

.global aes256_init
aes256_init:
	movw r20, r22
    1ea0:	ab 01       	movw	r20, r22
	ldi r23, hi8(256)
    1ea2:	71 e0       	ldi	r23, 0x01	; 1
	ldi r22, lo8(256)
    1ea4:	60 e0       	ldi	r22, 0x00	; 0
	rjmp aes_init
    1ea6:	07 c0       	rjmp	.+14     	; 0x1eb6 <aes_init>

00001ea8 <aes192_init>:
	
.global aes192_init
aes192_init:
	movw r20, r22
    1ea8:	ab 01       	movw	r20, r22
	ldi r23, hi8(192)
    1eaa:	70 e0       	ldi	r23, 0x00	; 0
	ldi r22, lo8(192)
    1eac:	60 ec       	ldi	r22, 0xC0	; 192
	rjmp aes_init
    1eae:	03 c0       	rjmp	.+6      	; 0x1eb6 <aes_init>

00001eb0 <aes128_init>:
	
.global aes128_init
aes128_init:
	movw r20, r22
    1eb0:	ab 01       	movw	r20, r22
	clr r23
    1eb2:	77 27       	eor	r23, r23
	ldi r22, 128
    1eb4:	60 e8       	ldi	r22, 0x80	; 128

00001eb6 <aes_init>:
 * param keysize_b: r22:r23
 * param ctx:       r20:r21
 */
.global aes_init
aes_init:
	push_range 14, 17
    1eb6:	ef 92       	push	r14
    1eb8:	ff 92       	push	r15
    1eba:	0f 93       	push	r16
    1ebc:	1f 93       	push	r17
	push r28
    1ebe:	cf 93       	push	r28
	push r29
    1ec0:	df 93       	push	r29
	movw r30, r20
    1ec2:	fa 01       	movw	r30, r20
	movw r28, r20
    1ec4:	ea 01       	movw	r28, r20
	movw r26, r24
    1ec6:	dc 01       	movw	r26, r24
	lsr r23
    1ec8:	76 95       	lsr	r23
	ror r22
    1eca:	67 95       	ror	r22
	lsr r22
    1ecc:	66 95       	lsr	r22
	lsr r22 /* r22 contains keysize_b/8 */
    1ece:	66 95       	lsr	r22
	mov C1, r22
    1ed0:	26 2f       	mov	r18, r22

1:	/* copy key to ctx */ 
	ld r0, X+
    1ed2:	0d 90       	ld	r0, X+
	st Z+, r0
    1ed4:	01 92       	st	Z+, r0
	dec C1
    1ed6:	2a 95       	dec	r18
	brne 1b
    1ed8:	e1 f7       	brne	.-8      	; 0x1ed2 <aes_init+0x1c>
	
	lsr NK
    1eda:	66 95       	lsr	r22
	lsr NK
    1edc:	66 95       	lsr	r22
	bst NK,3 /* set T if NK==8 */
    1ede:	63 fb       	bst	r22, 3
	mov NEXT_NK, NK
    1ee0:	36 2f       	mov	r19, r22
	mov HI, NK
    1ee2:	76 2f       	mov	r23, r22
	subi HI, -7
    1ee4:	79 5f       	subi	r23, 0xF9	; 249
	lsl HI
    1ee6:	77 0f       	add	r23, r23
	lsl HI
    1ee8:	77 0f       	add	r23, r23
	movw r26, r30
    1eea:	df 01       	movw	r26, r30
	sbiw r26, 4
    1eec:	14 97       	sbiw	r26, 0x04	; 4
	mov C1, NK
    1eee:	26 2f       	mov	r18, r22
	ldi r30, lo8(aes_sbox)
    1ef0:	e0 e0       	ldi	r30, 0x00	; 0
	ldi r31, hi8(aes_sbox)
    1ef2:	f0 e2       	ldi	r31, 0x20	; 32
	movw SBOX_SAVE0, r30
    1ef4:	7f 01       	movw	r14, r30
	ldi XRC, 1
    1ef6:	11 e0       	ldi	r17, 0x01	; 1
1:	
	ld T0, X+
    1ef8:	4d 91       	ld	r20, X+
	ld T1, X+
    1efa:	5d 91       	ld	r21, X+
	ld T2, X+
    1efc:	8d 91       	ld	r24, X+
	ld T3, X+
    1efe:	9d 91       	ld	r25, X+
	cp NEXT_NK, C1
    1f00:	32 17       	cp	r19, r18
	breq 2f 
    1f02:	b1 f0       	breq	.+44     	; 0x1f30 <aes_init+0x7a>
	brtc 5f
    1f04:	5e f5       	brtc	.+86     	; 0x1f5c <aes_init+0xa6>
	mov r16, C1
    1f06:	02 2f       	mov	r16, r18
	andi r16, 0x07
    1f08:	07 70       	andi	r16, 0x07	; 7
	cpi r16, 0x04
    1f0a:	04 30       	cpi	r16, 0x04	; 4
	brne 5f
    1f0c:	39 f5       	brne	.+78     	; 0x1f5c <aes_init+0xa6>
	movw r30, SBOX_SAVE0
    1f0e:	f7 01       	movw	r30, r14
	add r30, T0
    1f10:	e4 0f       	add	r30, r20
	adc r31, r1
    1f12:	f1 1d       	adc	r31, r1
	lpm T0, Z
    1f14:	44 91       	lpm	r20, Z
	movw r30, SBOX_SAVE0
    1f16:	f7 01       	movw	r30, r14
	add r30, T1
    1f18:	e5 0f       	add	r30, r21
	adc r31, r1
    1f1a:	f1 1d       	adc	r31, r1
	lpm T1, Z
    1f1c:	54 91       	lpm	r21, Z
	movw r30, SBOX_SAVE0
    1f1e:	f7 01       	movw	r30, r14
	add r30, T2
    1f20:	e8 0f       	add	r30, r24
	adc r31, r1
    1f22:	f1 1d       	adc	r31, r1
	lpm T2, Z
    1f24:	84 91       	lpm	r24, Z
	movw r30, SBOX_SAVE0
    1f26:	f7 01       	movw	r30, r14
	add r30, T3
    1f28:	e9 0f       	add	r30, r25
	adc r31, r1
    1f2a:	f1 1d       	adc	r31, r1
	lpm T3, Z
    1f2c:	94 91       	lpm	r25, Z
	rjmp 5f
    1f2e:	16 c0       	rjmp	.+44     	; 0x1f5c <aes_init+0xa6>
2:
	add NEXT_NK, NK
    1f30:	36 0f       	add	r19, r22
	movw r30, SBOX_SAVE0
    1f32:	f7 01       	movw	r30, r14
	add r30, T0
    1f34:	e4 0f       	add	r30, r20
	adc r31, r1
    1f36:	f1 1d       	adc	r31, r1
	lpm r16, Z
    1f38:	04 91       	lpm	r16, Z
	movw r30, SBOX_SAVE0
    1f3a:	f7 01       	movw	r30, r14
	add r30, T1
    1f3c:	e5 0f       	add	r30, r21
	adc r31, r1
    1f3e:	f1 1d       	adc	r31, r1
	lpm T0, Z
    1f40:	44 91       	lpm	r20, Z
	movw r30, SBOX_SAVE0
    1f42:	f7 01       	movw	r30, r14
	add r30, T2
    1f44:	e8 0f       	add	r30, r24
	adc r31, r1
    1f46:	f1 1d       	adc	r31, r1
	lpm T1, Z
    1f48:	54 91       	lpm	r21, Z
	movw r30, SBOX_SAVE0
    1f4a:	f7 01       	movw	r30, r14
	add r30, T3
    1f4c:	e9 0f       	add	r30, r25
	adc r31, r1
    1f4e:	f1 1d       	adc	r31, r1
	lpm T2, Z
    1f50:	84 91       	lpm	r24, Z
	mov T3, r16
    1f52:	90 2f       	mov	r25, r16
	eor T0, XRC
    1f54:	41 27       	eor	r20, r17
	lsl XRC
    1f56:	11 0f       	add	r17, r17
	brcc 3f
    1f58:	08 f4       	brcc	.+2      	; 0x1f5c <aes_init+0xa6>
	ldi XRC, 0x1b
    1f5a:	1b e1       	ldi	r17, 0x1B	; 27
3:
5:	
	movw r30, r26
    1f5c:	fd 01       	movw	r30, r26

	ld r0, Y+
    1f5e:	09 90       	ld	r0, Y+
	eor r0, T0
    1f60:	04 26       	eor	r0, r20
	st Z+, r0 
    1f62:	01 92       	st	Z+, r0
	ld r0, Y+
    1f64:	09 90       	ld	r0, Y+
	eor r0 ,T1
    1f66:	05 26       	eor	r0, r21
	st Z+, r0
    1f68:	01 92       	st	Z+, r0
	ld r0, Y+
    1f6a:	09 90       	ld	r0, Y+
	eor r0, T2
    1f6c:	08 26       	eor	r0, r24
	st Z+, r0
    1f6e:	01 92       	st	Z+, r0
	ld r0, Y+
    1f70:	09 90       	ld	r0, Y+
	eor r0, T3
    1f72:	09 26       	eor	r0, r25
	st Z+, r0
    1f74:	01 92       	st	Z+, r0
	st Z+, T1
	st Z+, T2
	st Z+, T3
*/		
	
	inc C1
    1f76:	23 95       	inc	r18
	cp C1, HI
    1f78:	27 17       	cp	r18, r23
	breq 6f
    1f7a:	09 f0       	breq	.+2      	; 0x1f7e <aes_init+0xc8>
	rjmp 1b
    1f7c:	bd cf       	rjmp	.-134    	; 0x1ef8 <aes_init+0x42>
6:	
	
	clt
    1f7e:	e8 94       	clt
	pop r29
    1f80:	df 91       	pop	r29
	pop r28
    1f82:	cf 91       	pop	r28
	pop_range 14, 17
    1f84:	1f 91       	pop	r17
    1f86:	0f 91       	pop	r16
    1f88:	ff 90       	pop	r15
    1f8a:	ef 90       	pop	r14
    1f8c:	08 95       	ret
	...

00002000 <aes_sbox>:
    2000:	63 7c       	andi	r22, 0xC3	; 195
    2002:	77 7b       	andi	r23, 0xB7	; 183
    2004:	f2 6b       	ori	r31, 0xB2	; 178
    2006:	6f c5       	rjmp	.+2782   	; 0x2ae6 <_etext+0x1c4>
    2008:	30 01       	movw	r6, r0
    200a:	67 2b       	or	r22, r23
    200c:	fe d7       	rcall	.+4092   	; 0x300a <__data_load_end+0x4aa>
    200e:	ab 76       	andi	r26, 0x6B	; 107
    2010:	ca 82       	std	Y+2, r12	; 0x02
    2012:	c9 7d       	andi	r28, 0xD9	; 217
    2014:	fa 59       	subi	r31, 0x9A	; 154
    2016:	47 f0       	brie	.+16     	; 0x2028 <aes_sbox+0x28>
    2018:	ad d4       	rcall	.+2394   	; 0x2974 <_etext+0x52>
    201a:	a2 af       	std	Z+58, r26	; 0x3a
    201c:	9c a4       	ldd	r9, Y+44	; 0x2c
    201e:	72 c0       	rjmp	.+228    	; 0x2104 <XoR+0x4>
    2020:	b7 fd       	sbrc	r27, 7
    2022:	93 26       	eor	r9, r19
    2024:	36 3f       	cpi	r19, 0xF6	; 246
    2026:	f7 cc       	rjmp	.-1554   	; 0x1a16 <__LOCK_REGION_LENGTH__+0x1616>
    2028:	34 a5       	ldd	r19, Z+44	; 0x2c
    202a:	e5 f1       	brhs	.+120    	; 0x20a4 <aes_sbox+0xa4>
    202c:	71 d8       	rcall	.-3870   	; 0x1110 <__LOCK_REGION_LENGTH__+0xd10>
    202e:	31 15       	cp	r19, r1
    2030:	04 c7       	rjmp	.+3592   	; 0x2e3a <__data_load_end+0x2da>
    2032:	23 c3       	rjmp	.+1606   	; 0x267a <main+0xca>
    2034:	18 96       	adiw	r26, 0x08	; 8
    2036:	05 9a       	sbi	0x00, 5	; 0
    2038:	07 12       	cpse	r0, r23
    203a:	80 e2       	ldi	r24, 0x20	; 32
    203c:	eb 27       	eor	r30, r27
    203e:	b2 75       	andi	r27, 0x52	; 82
    2040:	09 83       	std	Y+1, r16	; 0x01
    2042:	2c 1a       	sub	r2, r28
    2044:	1b 6e       	ori	r17, 0xEB	; 235
    2046:	5a a0       	ldd	r5, Y+34	; 0x22
    2048:	52 3b       	cpi	r21, 0xB2	; 178
    204a:	d6 b3       	in	r29, 0x16	; 22
    204c:	29 e3       	ldi	r18, 0x39	; 57
    204e:	2f 84       	ldd	r2, Y+15	; 0x0f
    2050:	53 d1       	rcall	.+678    	; 0x22f8 <derived_function+0x16e>
    2052:	00 ed       	ldi	r16, 0xD0	; 208
    2054:	20 fc       	sbrc	r2, 0
    2056:	b1 5b       	subi	r27, 0xB1	; 177
    2058:	6a cb       	rjmp	.-2348   	; 0x172e <__LOCK_REGION_LENGTH__+0x132e>
    205a:	be 39       	cpi	r27, 0x9E	; 158
    205c:	4a 4c       	sbci	r20, 0xCA	; 202
    205e:	58 cf       	rjmp	.-336    	; 0x1f10 <aes_init+0x5a>
    2060:	d0 ef       	ldi	r29, 0xF0	; 240
    2062:	aa fb       	.word	0xfbaa	; ????
    2064:	43 4d       	sbci	r20, 0xD3	; 211
    2066:	33 85       	ldd	r19, Z+11	; 0x0b
    2068:	45 f9       	bld	r20, 5
    206a:	02 7f       	andi	r16, 0xF2	; 242
    206c:	50 3c       	cpi	r21, 0xC0	; 192
    206e:	9f a8       	ldd	r9, Y+55	; 0x37
    2070:	51 a3       	std	Z+33, r21	; 0x21
    2072:	40 8f       	std	Z+24, r20	; 0x18
    2074:	92 9d       	mul	r25, r2
    2076:	38 f5       	brcc	.+78     	; 0x20c6 <aes_sbox+0xc6>
    2078:	bc b6       	in	r11, 0x3c	; 60
    207a:	da 21       	and	r29, r10
    207c:	10 ff       	sbrs	r17, 0
    207e:	f3 d2       	rcall	.+1510   	; 0x2666 <main+0xb6>
    2080:	cd 0c       	add	r12, r13
    2082:	13 ec       	ldi	r17, 0xC3	; 195
    2084:	5f 97       	sbiw	r26, 0x1f	; 31
    2086:	44 17       	cp	r20, r20
    2088:	c4 a7       	std	Z+44, r28	; 0x2c
    208a:	7e 3d       	cpi	r23, 0xDE	; 222
    208c:	64 5d       	subi	r22, 0xD4	; 212
    208e:	19 73       	andi	r17, 0x39	; 57
    2090:	60 81       	ld	r22, Z
    2092:	4f dc       	rcall	.-1890   	; 0x1932 <__LOCK_REGION_LENGTH__+0x1532>
    2094:	22 2a       	or	r2, r18
    2096:	90 88       	ldd	r9, Z+16	; 0x10
    2098:	46 ee       	ldi	r20, 0xE6	; 230
    209a:	b8 14       	cp	r11, r8
    209c:	de 5e       	subi	r29, 0xEE	; 238
    209e:	0b db       	rcall	.-2538   	; 0x16b6 <__LOCK_REGION_LENGTH__+0x12b6>
    20a0:	e0 32       	cpi	r30, 0x20	; 32
    20a2:	3a 0a       	sbc	r3, r26
    20a4:	49 06       	cpc	r4, r25
    20a6:	24 5c       	subi	r18, 0xC4	; 196
    20a8:	c2 d3       	rcall	.+1924   	; 0x282e <free+0x30>
    20aa:	ac 62       	ori	r26, 0x2C	; 44
    20ac:	91 95       	neg	r25
    20ae:	e4 79       	andi	r30, 0x94	; 148
    20b0:	e7 c8       	rjmp	.-3634   	; 0x1280 <__LOCK_REGION_LENGTH__+0xe80>
    20b2:	37 6d       	ori	r19, 0xD7	; 215
    20b4:	8d d5       	rcall	.+2842   	; 0x2bd0 <__data_load_end+0x70>
    20b6:	4e a9       	ldd	r20, Y+54	; 0x36
    20b8:	6c 56       	subi	r22, 0x6C	; 108
    20ba:	f4 ea       	ldi	r31, 0xA4	; 164
    20bc:	65 7a       	andi	r22, 0xA5	; 165
    20be:	ae 08       	sbc	r10, r14
    20c0:	ba 78       	andi	r27, 0x8A	; 138
    20c2:	25 2e       	mov	r2, r21
    20c4:	1c a6       	std	Y+44, r1	; 0x2c
    20c6:	b4 c6       	rjmp	.+3432   	; 0x2e30 <__data_load_end+0x2d0>
    20c8:	e8 dd       	rcall	.-1072   	; 0x1c9a <__LOCK_REGION_LENGTH__+0x189a>
    20ca:	74 1f       	adc	r23, r20
    20cc:	4b bd       	out	0x2b, r20	; 43
    20ce:	8b 8a       	std	Y+19, r8	; 0x13
    20d0:	70 3e       	cpi	r23, 0xE0	; 224
    20d2:	b5 66       	ori	r27, 0x65	; 101
    20d4:	48 03       	fmul	r20, r16
    20d6:	f6 0e       	add	r15, r22
    20d8:	61 35       	cpi	r22, 0x51	; 81
    20da:	57 b9       	out	0x07, r21	; 7
    20dc:	86 c1       	rjmp	.+780    	; 0x23ea <derived_function+0x260>
    20de:	1d 9e       	mul	r1, r29
    20e0:	e1 f8       	bld	r14, 1
    20e2:	98 11       	cpse	r25, r8
    20e4:	69 d9       	rcall	.-3374   	; 0x13b8 <__LOCK_REGION_LENGTH__+0xfb8>
    20e6:	8e 94 9b 1e 	call	0x203d36	; 0x203d36 <__TEXT_REGION_LENGTH__+0x1e3d36>
    20ea:	87 e9       	ldi	r24, 0x97	; 151
    20ec:	ce 55       	subi	r28, 0x5E	; 94
    20ee:	28 df       	rcall	.-432    	; 0x1f40 <aes_init+0x8a>
    20f0:	8c a1       	ldd	r24, Y+36	; 0x24
    20f2:	89 0d       	add	r24, r9
    20f4:	bf e6       	ldi	r27, 0x6F	; 111
    20f6:	42 68       	ori	r20, 0x82	; 130
    20f8:	41 99       	sbic	0x08, 1	; 8
    20fa:	2d 0f       	add	r18, r29
    20fc:	b0 54       	subi	r27, 0x40	; 64
    20fe:	bb 16       	cp	r11, r27

00002100 <XoR>:
			state->key[cnt_i] = temp[cnt_i] ^ seed[cnt_i];
			state->V[cnt_i] = temp[16 + cnt_i] ^ seed[16 + cnt_i];
		}
	}
	state->Reseed_counter++;
}
    2100:	14 16       	cp	r1, r20
    2102:	15 06       	cpc	r1, r21
    2104:	64 f4       	brge	.+24     	; 0x211e <XoR+0x1e>
    2106:	a6 2f       	mov	r26, r22
    2108:	b7 2f       	mov	r27, r23
    210a:	fc 01       	movw	r30, r24
    210c:	48 0f       	add	r20, r24
    210e:	59 1f       	adc	r21, r25
    2110:	9d 91       	ld	r25, X+
    2112:	20 81       	ld	r18, Z
    2114:	92 27       	eor	r25, r18
    2116:	91 93       	st	Z+, r25
    2118:	e4 17       	cp	r30, r20
    211a:	f5 07       	cpc	r31, r21
    211c:	c9 f7       	brne	.-14     	; 0x2110 <XoR+0x10>
    211e:	08 95       	ret

00002120 <set_state>:
    2120:	db 01       	movw	r26, r22
    2122:	a4 0f       	add	r26, r20
    2124:	b5 1f       	adc	r27, r21
    2126:	fc 01       	movw	r30, r24
    2128:	9c 01       	movw	r18, r24
    212a:	20 5f       	subi	r18, 0xF0	; 240
    212c:	3f 4f       	sbci	r19, 0xFF	; 255
    212e:	9d 91       	ld	r25, X+
    2130:	91 93       	st	Z+, r25
    2132:	e2 17       	cp	r30, r18
    2134:	f3 07       	cpc	r31, r19
    2136:	d9 f7       	brne	.-10     	; 0x212e <set_state+0xe>
    2138:	08 95       	ret

0000213a <copy_state>:
    213a:	fb 01       	movw	r30, r22
    213c:	da 01       	movw	r26, r20
    213e:	a2 95       	swap	r26
    2140:	b2 95       	swap	r27
    2142:	b0 7f       	andi	r27, 0xF0	; 240
    2144:	ba 27       	eor	r27, r26
    2146:	a0 7f       	andi	r26, 0xF0	; 240
    2148:	ba 27       	eor	r27, r26
    214a:	a8 0f       	add	r26, r24
    214c:	b9 1f       	adc	r27, r25
    214e:	60 5f       	subi	r22, 0xF0	; 240
    2150:	7f 4f       	sbci	r23, 0xFF	; 255
    2152:	81 91       	ld	r24, Z+
    2154:	8d 93       	st	X+, r24
    2156:	e6 17       	cp	r30, r22
    2158:	f7 07       	cpc	r31, r23
    215a:	d9 f7       	brne	.-10     	; 0x2152 <copy_state+0x18>
    215c:	08 95       	ret

0000215e <copy>:
    215e:	fb 01       	movw	r30, r22
    2160:	dc 01       	movw	r26, r24
    2162:	9b 01       	movw	r18, r22
    2164:	20 5f       	subi	r18, 0xF0	; 240
    2166:	3f 4f       	sbci	r19, 0xFF	; 255
    2168:	81 91       	ld	r24, Z+
    216a:	8d 93       	st	X+, r24
    216c:	e2 17       	cp	r30, r18
    216e:	f3 07       	cpc	r31, r19
    2170:	d9 f7       	brne	.-10     	; 0x2168 <copy+0xa>
    2172:	08 95       	ret

00002174 <clear>:
    2174:	16 16       	cp	r1, r22
    2176:	17 06       	cpc	r1, r23
    2178:	3c f4       	brge	.+14     	; 0x2188 <clear+0x14>
    217a:	fc 01       	movw	r30, r24
    217c:	86 0f       	add	r24, r22
    217e:	97 1f       	adc	r25, r23
    2180:	11 92       	st	Z+, r1
    2182:	e8 17       	cp	r30, r24
    2184:	f9 07       	cpc	r31, r25
    2186:	e1 f7       	brne	.-8      	; 0x2180 <clear+0xc>
    2188:	08 95       	ret

0000218a <derived_function>:
    218a:	8f 92       	push	r8
    218c:	9f 92       	push	r9
    218e:	bf 92       	push	r11
    2190:	cf 92       	push	r12
    2192:	df 92       	push	r13
    2194:	ef 92       	push	r14
    2196:	ff 92       	push	r15
    2198:	0f 93       	push	r16
    219a:	1f 93       	push	r17
    219c:	cf 93       	push	r28
    219e:	df 93       	push	r29
    21a0:	cd b7       	in	r28, 0x3d	; 61
    21a2:	de b7       	in	r29, 0x3e	; 62
    21a4:	c3 51       	subi	r28, 0x13	; 19
    21a6:	d1 40       	sbci	r29, 0x01	; 1
    21a8:	0f b6       	in	r0, 0x3f	; 63
    21aa:	f8 94       	cli
    21ac:	de bf       	out	0x3e, r29	; 62
    21ae:	0f be       	out	0x3f, r0	; 63
    21b0:	cd bf       	out	0x3d, r28	; 61
    21b2:	6c 01       	movw	r12, r24
    21b4:	7b 01       	movw	r14, r22
    21b6:	4a 01       	movw	r8, r20
    21b8:	1b 82       	std	Y+3, r1	; 0x03
    21ba:	da 01       	movw	r26, r20
    21bc:	1c 91       	ld	r17, X
    21be:	0f 2e       	mov	r0, r31
    21c0:	f9 e1       	ldi	r31, 0x19	; 25
    21c2:	bf 2e       	mov	r11, r31
    21c4:	f0 2d       	mov	r31, r0
    21c6:	b1 0e       	add	r11, r17
    21c8:	0b 2d       	mov	r16, r11
    21ca:	0f 70       	andi	r16, 0x0F	; 15
    21cc:	80 e1       	ldi	r24, 0x10	; 16
    21ce:	e6 e0       	ldi	r30, 0x06	; 6
    21d0:	f3 e0       	ldi	r31, 0x03	; 3
    21d2:	de 01       	movw	r26, r28
    21d4:	14 96       	adiw	r26, 0x04	; 4
    21d6:	01 90       	ld	r0, Z+
    21d8:	0d 92       	st	X+, r0
    21da:	8a 95       	dec	r24
    21dc:	e1 f7       	brne	.-8      	; 0x21d6 <derived_function+0x4c>
    21de:	fe 01       	movw	r30, r28
    21e0:	74 96       	adiw	r30, 0x14	; 20
    21e2:	80 e1       	ldi	r24, 0x10	; 16
    21e4:	df 01       	movw	r26, r30
    21e6:	1d 92       	st	X+, r1
    21e8:	8a 95       	dec	r24
    21ea:	e9 f7       	brne	.-6      	; 0x21e6 <derived_function+0x5c>
    21ec:	70 96       	adiw	r30, 0x10	; 16
    21ee:	80 e2       	ldi	r24, 0x20	; 32
    21f0:	df 01       	movw	r26, r30
    21f2:	1d 92       	st	X+, r1
    21f4:	8a 95       	dec	r24
    21f6:	e9 f7       	brne	.-6      	; 0x21f2 <derived_function+0x68>
    21f8:	be 01       	movw	r22, r28
    21fa:	6c 5b       	subi	r22, 0xBC	; 188
    21fc:	7f 4f       	sbci	r23, 0xFF	; 255
    21fe:	ce 01       	movw	r24, r28
    2200:	04 96       	adiw	r24, 0x04	; 4
    2202:	56 de       	rcall	.-852    	; 0x1eb0 <aes128_init>
    2204:	00 23       	and	r16, r16
    2206:	19 f0       	breq	.+6      	; 0x220e <derived_function+0x84>
    2208:	17 5d       	subi	r17, 0xD7	; 215
    220a:	b1 2e       	mov	r11, r17
    220c:	b0 1a       	sub	r11, r16
    220e:	61 e0       	ldi	r22, 0x01	; 1
    2210:	70 e0       	ldi	r23, 0x00	; 0
    2212:	8b 2d       	mov	r24, r11
    2214:	90 e0       	ldi	r25, 0x00	; 0
    2216:	41 d2       	rcall	.+1154   	; 0x269a <calloc>
    2218:	8c 01       	movw	r16, r24
    221a:	f4 01       	movw	r30, r8
    221c:	20 81       	ld	r18, Z
    221e:	dc 01       	movw	r26, r24
    2220:	53 96       	adiw	r26, 0x13	; 19
    2222:	2c 93       	st	X, r18
    2224:	53 97       	sbiw	r26, 0x13	; 19
    2226:	80 e2       	ldi	r24, 0x20	; 32
    2228:	57 96       	adiw	r26, 0x17	; 23
    222a:	8c 93       	st	X, r24
    222c:	88 e1       	ldi	r24, 0x18	; 24
    222e:	89 83       	std	Y+1, r24	; 0x01
    2230:	89 81       	ldd	r24, Y+1	; 0x01
    2232:	30 e0       	ldi	r19, 0x00	; 0
    2234:	28 5e       	subi	r18, 0xE8	; 232
    2236:	3f 4f       	sbci	r19, 0xFF	; 255
    2238:	90 e0       	ldi	r25, 0x00	; 0
    223a:	82 17       	cp	r24, r18
    223c:	93 07       	cpc	r25, r19
    223e:	9c f4       	brge	.+38     	; 0x2266 <derived_function+0xdc>
    2240:	99 81       	ldd	r25, Y+1	; 0x01
    2242:	89 81       	ldd	r24, Y+1	; 0x01
    2244:	d8 01       	movw	r26, r16
    2246:	a9 0f       	add	r26, r25
    2248:	b1 1d       	adc	r27, r1
    224a:	f6 01       	movw	r30, r12
    224c:	e8 0f       	add	r30, r24
    224e:	f1 1d       	adc	r31, r1
    2250:	78 97       	sbiw	r30, 0x18	; 24
    2252:	80 81       	ld	r24, Z
    2254:	8c 93       	st	X, r24
    2256:	89 81       	ldd	r24, Y+1	; 0x01
    2258:	8f 5f       	subi	r24, 0xFF	; 255
    225a:	89 83       	std	Y+1, r24	; 0x01
    225c:	89 81       	ldd	r24, Y+1	; 0x01
    225e:	90 e0       	ldi	r25, 0x00	; 0
    2260:	82 17       	cp	r24, r18
    2262:	93 07       	cpc	r25, r19
    2264:	6c f3       	brlt	.-38     	; 0x2240 <derived_function+0xb6>
    2266:	89 81       	ldd	r24, Y+1	; 0x01
    2268:	f8 01       	movw	r30, r16
    226a:	e8 0f       	add	r30, r24
    226c:	f1 1d       	adc	r31, r1
    226e:	80 e8       	ldi	r24, 0x80	; 128
    2270:	80 83       	st	Z, r24
    2272:	fe 01       	movw	r30, r28
    2274:	ec 50       	subi	r30, 0x0C	; 12
    2276:	ff 4f       	sbci	r31, 0xFF	; 255
    2278:	80 e1       	ldi	r24, 0x10	; 16
    227a:	df 01       	movw	r26, r30
    227c:	1d 92       	st	X+, r1
    227e:	8a 95       	dec	r24
    2280:	e9 f7       	brne	.-6      	; 0x227c <derived_function+0xf2>
    2282:	1a 82       	std	Y+2, r1	; 0x02
    2284:	8a 81       	ldd	r24, Y+2	; 0x02
    2286:	82 30       	cpi	r24, 0x02	; 2
    2288:	08 f0       	brcs	.+2      	; 0x228c <derived_function+0x102>
    228a:	48 c0       	rjmp	.+144    	; 0x231c <derived_function+0x192>
    228c:	db 2c       	mov	r13, r11
    228e:	d6 94       	lsr	r13
    2290:	d6 94       	lsr	r13
    2292:	d6 94       	lsr	r13
    2294:	d6 94       	lsr	r13
    2296:	19 82       	std	Y+1, r1	; 0x01
    2298:	89 81       	ldd	r24, Y+1	; 0x01
    229a:	8d 15       	cp	r24, r13
    229c:	38 f5       	brcc	.+78     	; 0x22ec <derived_function+0x162>
    229e:	49 81       	ldd	r20, Y+1	; 0x01
    22a0:	b0 e1       	ldi	r27, 0x10	; 16
    22a2:	4b 9f       	mul	r20, r27
    22a4:	a0 01       	movw	r20, r0
    22a6:	11 24       	eor	r1, r1
    22a8:	b8 01       	movw	r22, r16
    22aa:	ce 01       	movw	r24, r28
    22ac:	8c 50       	subi	r24, 0x0C	; 12
    22ae:	9f 4f       	sbci	r25, 0xFF	; 255
    22b0:	37 df       	rcall	.-402    	; 0x2120 <set_state>
    22b2:	40 e1       	ldi	r20, 0x10	; 16
    22b4:	50 e0       	ldi	r21, 0x00	; 0
    22b6:	be 01       	movw	r22, r28
    22b8:	6c 5e       	subi	r22, 0xEC	; 236
    22ba:	7f 4f       	sbci	r23, 0xFF	; 255
    22bc:	ce 01       	movw	r24, r28
    22be:	8c 50       	subi	r24, 0x0C	; 12
    22c0:	9f 4f       	sbci	r25, 0xFF	; 255
    22c2:	1e df       	rcall	.-452    	; 0x2100 <XoR>
    22c4:	be 01       	movw	r22, r28
    22c6:	6c 5b       	subi	r22, 0xBC	; 188
    22c8:	7f 4f       	sbci	r23, 0xFF	; 255
    22ca:	ce 01       	movw	r24, r28
    22cc:	8c 50       	subi	r24, 0x0C	; 12
    22ce:	9f 4f       	sbci	r25, 0xFF	; 255
    22d0:	0e 94 6a 00 	call	0xd4	; 0xd4 <aes128_enc_CBC_asm>
    22d4:	be 01       	movw	r22, r28
    22d6:	6c 50       	subi	r22, 0x0C	; 12
    22d8:	7f 4f       	sbci	r23, 0xFF	; 255
    22da:	ce 01       	movw	r24, r28
    22dc:	44 96       	adiw	r24, 0x14	; 20
    22de:	3f df       	rcall	.-386    	; 0x215e <copy>
    22e0:	89 81       	ldd	r24, Y+1	; 0x01
    22e2:	8f 5f       	subi	r24, 0xFF	; 255
    22e4:	89 83       	std	Y+1, r24	; 0x01
    22e6:	89 81       	ldd	r24, Y+1	; 0x01
    22e8:	8d 15       	cp	r24, r13
    22ea:	c8 f2       	brcs	.-78     	; 0x229e <derived_function+0x114>
    22ec:	4a 81       	ldd	r20, Y+2	; 0x02
    22ee:	50 e0       	ldi	r21, 0x00	; 0
    22f0:	be 01       	movw	r22, r28
    22f2:	6c 5e       	subi	r22, 0xEC	; 236
    22f4:	7f 4f       	sbci	r23, 0xFF	; 255
    22f6:	ce 01       	movw	r24, r28
    22f8:	84 96       	adiw	r24, 0x24	; 36
    22fa:	1f df       	rcall	.-450    	; 0x213a <copy_state>
    22fc:	60 e1       	ldi	r22, 0x10	; 16
    22fe:	70 e0       	ldi	r23, 0x00	; 0
    2300:	ce 01       	movw	r24, r28
    2302:	44 96       	adiw	r24, 0x14	; 20
    2304:	37 df       	rcall	.-402    	; 0x2174 <clear>
    2306:	f8 01       	movw	r30, r16
    2308:	83 81       	ldd	r24, Z+3	; 0x03
    230a:	8f 5f       	subi	r24, 0xFF	; 255
    230c:	83 83       	std	Z+3, r24	; 0x03
    230e:	8a 81       	ldd	r24, Y+2	; 0x02
    2310:	8f 5f       	subi	r24, 0xFF	; 255
    2312:	8a 83       	std	Y+2, r24	; 0x02
    2314:	8a 81       	ldd	r24, Y+2	; 0x02
    2316:	82 30       	cpi	r24, 0x02	; 2
    2318:	08 f4       	brcc	.+2      	; 0x231c <derived_function+0x192>
    231a:	bd cf       	rjmp	.-134    	; 0x2296 <derived_function+0x10c>
    231c:	fe 01       	movw	r30, r28
    231e:	ec 5f       	subi	r30, 0xFC	; 252
    2320:	fe 4f       	sbci	r31, 0xFE	; 254
    2322:	80 e1       	ldi	r24, 0x10	; 16
    2324:	df 01       	movw	r26, r30
    2326:	1d 92       	st	X+, r1
    2328:	8a 95       	dec	r24
    232a:	e9 f7       	brne	.-6      	; 0x2326 <derived_function+0x19c>
    232c:	19 82       	std	Y+1, r1	; 0x01
    232e:	89 81       	ldd	r24, Y+1	; 0x01
    2330:	80 31       	cpi	r24, 0x10	; 16
    2332:	c0 f4       	brcc	.+48     	; 0x2364 <derived_function+0x1da>
    2334:	99 81       	ldd	r25, Y+1	; 0x01
    2336:	89 81       	ldd	r24, Y+1	; 0x01
    2338:	e4 e0       	ldi	r30, 0x04	; 4
    233a:	f1 e0       	ldi	r31, 0x01	; 1
    233c:	ec 0f       	add	r30, r28
    233e:	fd 1f       	adc	r31, r29
    2340:	e9 0f       	add	r30, r25
    2342:	f1 1d       	adc	r31, r1
    2344:	24 e2       	ldi	r18, 0x24	; 36
    2346:	30 e0       	ldi	r19, 0x00	; 0
    2348:	2c 0f       	add	r18, r28
    234a:	3d 1f       	adc	r19, r29
    234c:	40 e1       	ldi	r20, 0x10	; 16
    234e:	84 9f       	mul	r24, r20
    2350:	20 0d       	add	r18, r0
    2352:	31 1d       	adc	r19, r1
    2354:	11 24       	eor	r1, r1
    2356:	20 83       	st	Z, r18
    2358:	89 81       	ldd	r24, Y+1	; 0x01
    235a:	8f 5f       	subi	r24, 0xFF	; 255
    235c:	89 83       	std	Y+1, r24	; 0x01
    235e:	89 81       	ldd	r24, Y+1	; 0x01
    2360:	80 31       	cpi	r24, 0x10	; 16
    2362:	40 f3       	brcs	.-48     	; 0x2334 <derived_function+0x1aa>
    2364:	89 81       	ldd	r24, Y+1	; 0x01
    2366:	8a 83       	std	Y+2, r24	; 0x02
    2368:	8a 81       	ldd	r24, Y+2	; 0x02
    236a:	80 31       	cpi	r24, 0x10	; 16
    236c:	f8 f4       	brcc	.+62     	; 0x23ac <derived_function+0x222>
    236e:	9a 81       	ldd	r25, Y+2	; 0x02
    2370:	29 81       	ldd	r18, Y+1	; 0x01
    2372:	8a 81       	ldd	r24, Y+2	; 0x02
    2374:	e4 ef       	ldi	r30, 0xF4	; 244
    2376:	f0 e0       	ldi	r31, 0x00	; 0
    2378:	ec 0f       	add	r30, r28
    237a:	fd 1f       	adc	r31, r29
    237c:	e9 0f       	add	r30, r25
    237e:	f1 1d       	adc	r31, r1
    2380:	90 e0       	ldi	r25, 0x00	; 0
    2382:	82 0f       	add	r24, r18
    2384:	91 1d       	adc	r25, r1
    2386:	82 95       	swap	r24
    2388:	92 95       	swap	r25
    238a:	90 7f       	andi	r25, 0xF0	; 240
    238c:	98 27       	eor	r25, r24
    238e:	80 7f       	andi	r24, 0xF0	; 240
    2390:	98 27       	eor	r25, r24
    2392:	a4 e2       	ldi	r26, 0x24	; 36
    2394:	b0 e0       	ldi	r27, 0x00	; 0
    2396:	ac 0f       	add	r26, r28
    2398:	bd 1f       	adc	r27, r29
    239a:	8a 0f       	add	r24, r26
    239c:	9b 1f       	adc	r25, r27
    239e:	80 83       	st	Z, r24
    23a0:	8a 81       	ldd	r24, Y+2	; 0x02
    23a2:	8f 5f       	subi	r24, 0xFF	; 255
    23a4:	8a 83       	std	Y+2, r24	; 0x02
    23a6:	8a 81       	ldd	r24, Y+2	; 0x02
    23a8:	80 31       	cpi	r24, 0x10	; 16
    23aa:	08 f3       	brcs	.-62     	; 0x236e <derived_function+0x1e4>
    23ac:	be 01       	movw	r22, r28
    23ae:	6c 5b       	subi	r22, 0xBC	; 188
    23b0:	7f 4f       	sbci	r23, 0xFF	; 255
    23b2:	ce 01       	movw	r24, r28
    23b4:	8c 5f       	subi	r24, 0xFC	; 252
    23b6:	9e 4f       	sbci	r25, 0xFE	; 254
    23b8:	7b dd       	rcall	.-1290   	; 0x1eb0 <aes128_init>
    23ba:	19 82       	std	Y+1, r1	; 0x01
    23bc:	89 81       	ldd	r24, Y+1	; 0x01
    23be:	82 30       	cpi	r24, 0x02	; 2
    23c0:	58 f5       	brcc	.+86     	; 0x2418 <derived_function+0x28e>
    23c2:	be 01       	movw	r22, r28
    23c4:	6c 5b       	subi	r22, 0xBC	; 188
    23c6:	7f 4f       	sbci	r23, 0xFF	; 255
    23c8:	ce 01       	movw	r24, r28
    23ca:	8c 50       	subi	r24, 0x0C	; 12
    23cc:	9f 4f       	sbci	r25, 0xFF	; 255
    23ce:	0e 94 6a 00 	call	0xd4	; 0xd4 <aes128_enc_CBC_asm>
    23d2:	1a 82       	std	Y+2, r1	; 0x02
    23d4:	8a 81       	ldd	r24, Y+2	; 0x02
    23d6:	80 31       	cpi	r24, 0x10	; 16
    23d8:	c8 f4       	brcc	.+50     	; 0x240c <derived_function+0x282>
    23da:	29 81       	ldd	r18, Y+1	; 0x01
    23dc:	9a 81       	ldd	r25, Y+2	; 0x02
    23de:	8a 81       	ldd	r24, Y+2	; 0x02
    23e0:	f7 01       	movw	r30, r14
    23e2:	b0 e1       	ldi	r27, 0x10	; 16
    23e4:	2b 9f       	mul	r18, r27
    23e6:	e0 0d       	add	r30, r0
    23e8:	f1 1d       	adc	r31, r1
    23ea:	11 24       	eor	r1, r1
    23ec:	e9 0f       	add	r30, r25
    23ee:	f1 1d       	adc	r31, r1
    23f0:	a4 ef       	ldi	r26, 0xF4	; 244
    23f2:	b0 e0       	ldi	r27, 0x00	; 0
    23f4:	ac 0f       	add	r26, r28
    23f6:	bd 1f       	adc	r27, r29
    23f8:	a8 0f       	add	r26, r24
    23fa:	b1 1d       	adc	r27, r1
    23fc:	8c 91       	ld	r24, X
    23fe:	80 83       	st	Z, r24
    2400:	8a 81       	ldd	r24, Y+2	; 0x02
    2402:	8f 5f       	subi	r24, 0xFF	; 255
    2404:	8a 83       	std	Y+2, r24	; 0x02
    2406:	8a 81       	ldd	r24, Y+2	; 0x02
    2408:	80 31       	cpi	r24, 0x10	; 16
    240a:	38 f3       	brcs	.-50     	; 0x23da <derived_function+0x250>
    240c:	89 81       	ldd	r24, Y+1	; 0x01
    240e:	8f 5f       	subi	r24, 0xFF	; 255
    2410:	89 83       	std	Y+1, r24	; 0x01
    2412:	89 81       	ldd	r24, Y+1	; 0x01
    2414:	82 30       	cpi	r24, 0x02	; 2
    2416:	a8 f2       	brcs	.-86     	; 0x23c2 <derived_function+0x238>
    2418:	c8 01       	movw	r24, r16
    241a:	f1 d1       	rcall	.+994    	; 0x27fe <free>
    241c:	cd 5e       	subi	r28, 0xED	; 237
    241e:	de 4f       	sbci	r29, 0xFE	; 254
    2420:	0f b6       	in	r0, 0x3f	; 63
    2422:	f8 94       	cli
    2424:	de bf       	out	0x3e, r29	; 62
    2426:	0f be       	out	0x3f, r0	; 63
    2428:	cd bf       	out	0x3d, r28	; 61
    242a:	df 91       	pop	r29
    242c:	cf 91       	pop	r28
    242e:	1f 91       	pop	r17
    2430:	0f 91       	pop	r16
    2432:	ff 90       	pop	r15
    2434:	ef 90       	pop	r14
    2436:	df 90       	pop	r13
    2438:	cf 90       	pop	r12
    243a:	bf 90       	pop	r11
    243c:	9f 90       	pop	r9
    243e:	8f 90       	pop	r8
    2440:	08 95       	ret

00002442 <update>:
    2442:	ef 92       	push	r14
    2444:	ff 92       	push	r15
    2446:	0f 93       	push	r16
    2448:	1f 93       	push	r17
    244a:	cf 93       	push	r28
    244c:	df 93       	push	r29
    244e:	cd b7       	in	r28, 0x3d	; 61
    2450:	de b7       	in	r29, 0x3e	; 62
    2452:	ce 51       	subi	r28, 0x1E	; 30
    2454:	d1 40       	sbci	r29, 0x01	; 1
    2456:	0f b6       	in	r0, 0x3f	; 63
    2458:	f8 94       	cli
    245a:	de bf       	out	0x3e, r29	; 62
    245c:	0f be       	out	0x3f, r0	; 63
    245e:	cd bf       	out	0x3d, r28	; 61
    2460:	8c 01       	movw	r16, r24
    2462:	7b 01       	movw	r14, r22
    2464:	1a 82       	std	Y+2, r1	; 0x02
    2466:	fe 01       	movw	r30, r28
    2468:	33 96       	adiw	r30, 0x03	; 3
    246a:	80 e2       	ldi	r24, 0x20	; 32
    246c:	df 01       	movw	r26, r30
    246e:	1d 92       	st	X+, r1
    2470:	8a 95       	dec	r24
    2472:	e9 f7       	brne	.-6      	; 0x246e <update+0x2c>
    2474:	b0 96       	adiw	r30, 0x20	; 32
    2476:	8c e0       	ldi	r24, 0x0C	; 12
    2478:	df 01       	movw	r26, r30
    247a:	1d 92       	st	X+, r1
    247c:	8a 95       	dec	r24
    247e:	e9 f7       	brne	.-6      	; 0x247a <update+0x38>
    2480:	19 82       	std	Y+1, r1	; 0x01
    2482:	89 81       	ldd	r24, Y+1	; 0x01
    2484:	80 31       	cpi	r24, 0x10	; 16
    2486:	40 f4       	brcc	.+16     	; 0x2498 <update+0x56>
    2488:	89 81       	ldd	r24, Y+1	; 0x01
    248a:	89 81       	ldd	r24, Y+1	; 0x01
    248c:	89 81       	ldd	r24, Y+1	; 0x01
    248e:	8f 5f       	subi	r24, 0xFF	; 255
    2490:	89 83       	std	Y+1, r24	; 0x01
    2492:	89 81       	ldd	r24, Y+1	; 0x01
    2494:	80 31       	cpi	r24, 0x10	; 16
    2496:	c0 f3       	brcs	.-16     	; 0x2488 <update+0x46>
    2498:	b8 01       	movw	r22, r16
    249a:	60 5f       	subi	r22, 0xF0	; 240
    249c:	7f 4f       	sbci	r23, 0xFF	; 255
    249e:	ce 01       	movw	r24, r28
    24a0:	03 96       	adiw	r24, 0x03	; 3
    24a2:	5d de       	rcall	.-838    	; 0x215e <copy>
    24a4:	19 82       	std	Y+1, r1	; 0x01
    24a6:	89 81       	ldd	r24, Y+1	; 0x01
    24a8:	80 31       	cpi	r24, 0x10	; 16
    24aa:	a0 f4       	brcc	.+40     	; 0x24d4 <update+0x92>
    24ac:	99 81       	ldd	r25, Y+1	; 0x01
    24ae:	89 81       	ldd	r24, Y+1	; 0x01
    24b0:	e3 e0       	ldi	r30, 0x03	; 3
    24b2:	f0 e0       	ldi	r31, 0x00	; 0
    24b4:	ec 0f       	add	r30, r28
    24b6:	fd 1f       	adc	r31, r29
    24b8:	e9 0f       	add	r30, r25
    24ba:	f1 1d       	adc	r31, r1
    24bc:	d8 01       	movw	r26, r16
    24be:	a8 0f       	add	r26, r24
    24c0:	b1 1d       	adc	r27, r1
    24c2:	50 96       	adiw	r26, 0x10	; 16
    24c4:	8c 91       	ld	r24, X
    24c6:	80 83       	st	Z, r24
    24c8:	89 81       	ldd	r24, Y+1	; 0x01
    24ca:	8f 5f       	subi	r24, 0xFF	; 255
    24cc:	89 83       	std	Y+1, r24	; 0x01
    24ce:	89 81       	ldd	r24, Y+1	; 0x01
    24d0:	80 31       	cpi	r24, 0x10	; 16
    24d2:	60 f3       	brcs	.-40     	; 0x24ac <update+0x6a>
    24d4:	be 01       	movw	r22, r28
    24d6:	61 5d       	subi	r22, 0xD1	; 209
    24d8:	7f 4f       	sbci	r23, 0xFF	; 255
    24da:	c8 01       	movw	r24, r16
    24dc:	e1 dc       	rcall	.-1598   	; 0x1ea0 <aes256_init>
    24de:	ae 01       	movw	r20, r28
    24e0:	4d 5d       	subi	r20, 0xDD	; 221
    24e2:	5f 4f       	sbci	r21, 0xFF	; 255
    24e4:	be 01       	movw	r22, r28
    24e6:	61 5d       	subi	r22, 0xD1	; 209
    24e8:	7f 4f       	sbci	r23, 0xFF	; 255
    24ea:	ce 01       	movw	r24, r28
    24ec:	03 96       	adiw	r24, 0x03	; 3
    24ee:	0e 94 79 01 	call	0x2f2	; 0x2f2 <aes128_enc_CTR_asm>
    24f2:	19 82       	std	Y+1, r1	; 0x01
    24f4:	89 81       	ldd	r24, Y+1	; 0x01
    24f6:	80 31       	cpi	r24, 0x10	; 16
    24f8:	d0 f4       	brcc	.+52     	; 0x252e <update+0xec>
    24fa:	99 81       	ldd	r25, Y+1	; 0x01
    24fc:	29 81       	ldd	r18, Y+1	; 0x01
    24fe:	89 81       	ldd	r24, Y+1	; 0x01
    2500:	b8 01       	movw	r22, r16
    2502:	69 0f       	add	r22, r25
    2504:	71 1d       	adc	r23, r1
    2506:	f7 01       	movw	r30, r14
    2508:	e8 0f       	add	r30, r24
    250a:	f1 1d       	adc	r31, r1
    250c:	a3 e0       	ldi	r26, 0x03	; 3
    250e:	b0 e0       	ldi	r27, 0x00	; 0
    2510:	ac 0f       	add	r26, r28
    2512:	bd 1f       	adc	r27, r29
    2514:	a2 0f       	add	r26, r18
    2516:	b1 1d       	adc	r27, r1
    2518:	90 81       	ld	r25, Z
    251a:	8c 91       	ld	r24, X
    251c:	89 27       	eor	r24, r25
    251e:	db 01       	movw	r26, r22
    2520:	8c 93       	st	X, r24
    2522:	89 81       	ldd	r24, Y+1	; 0x01
    2524:	8f 5f       	subi	r24, 0xFF	; 255
    2526:	89 83       	std	Y+1, r24	; 0x01
    2528:	89 81       	ldd	r24, Y+1	; 0x01
    252a:	80 31       	cpi	r24, 0x10	; 16
    252c:	30 f3       	brcs	.-52     	; 0x24fa <update+0xb8>
    252e:	19 82       	std	Y+1, r1	; 0x01
    2530:	89 81       	ldd	r24, Y+1	; 0x01
    2532:	80 31       	cpi	r24, 0x10	; 16
    2534:	d8 f4       	brcc	.+54     	; 0x256c <update+0x12a>
    2536:	99 81       	ldd	r25, Y+1	; 0x01
    2538:	29 81       	ldd	r18, Y+1	; 0x01
    253a:	89 81       	ldd	r24, Y+1	; 0x01
    253c:	b8 01       	movw	r22, r16
    253e:	69 0f       	add	r22, r25
    2540:	71 1d       	adc	r23, r1
    2542:	f7 01       	movw	r30, r14
    2544:	e8 0f       	add	r30, r24
    2546:	f1 1d       	adc	r31, r1
    2548:	a3 e1       	ldi	r26, 0x13	; 19
    254a:	b0 e0       	ldi	r27, 0x00	; 0
    254c:	ac 0f       	add	r26, r28
    254e:	bd 1f       	adc	r27, r29
    2550:	a2 0f       	add	r26, r18
    2552:	b1 1d       	adc	r27, r1
    2554:	90 89       	ldd	r25, Z+16	; 0x10
    2556:	8c 91       	ld	r24, X
    2558:	89 27       	eor	r24, r25
    255a:	db 01       	movw	r26, r22
    255c:	50 96       	adiw	r26, 0x10	; 16
    255e:	8c 93       	st	X, r24
    2560:	89 81       	ldd	r24, Y+1	; 0x01
    2562:	8f 5f       	subi	r24, 0xFF	; 255
    2564:	89 83       	std	Y+1, r24	; 0x01
    2566:	89 81       	ldd	r24, Y+1	; 0x01
    2568:	80 31       	cpi	r24, 0x10	; 16
    256a:	28 f3       	brcs	.-54     	; 0x2536 <update+0xf4>
    256c:	c2 5e       	subi	r28, 0xE2	; 226
    256e:	de 4f       	sbci	r29, 0xFE	; 254
    2570:	0f b6       	in	r0, 0x3f	; 63
    2572:	f8 94       	cli
    2574:	de bf       	out	0x3e, r29	; 62
    2576:	0f be       	out	0x3f, r0	; 63
    2578:	cd bf       	out	0x3d, r28	; 61
    257a:	df 91       	pop	r29
    257c:	cf 91       	pop	r28
    257e:	1f 91       	pop	r17
    2580:	0f 91       	pop	r16
    2582:	ff 90       	pop	r15
    2584:	ef 90       	pop	r14
    2586:	08 95       	ret

00002588 <CTR_DRBG>:
	update(state, seed);
	free(input_data);
}

void CTR_DRBG(st_state *in_state, st_len *len, u8 *in, u8 *seed, u8 *random, u8 *re_add_data, u8 *re_Entrophy, u8 *add_data)
{
    2588:	0f 93       	push	r16
    258a:	1f 93       	push	r17
    258c:	cf 93       	push	r28
    258e:	df 93       	push	r29
    2590:	8c 01       	movw	r16, r24
    2592:	ca 01       	movw	r24, r20
    2594:	e9 01       	movw	r28, r18
	derived_function(in, seed, &len->input_len);
    2596:	ab 01       	movw	r20, r22
    2598:	4b 5f       	subi	r20, 0xFB	; 251
    259a:	5f 4f       	sbci	r21, 0xFF	; 255
    259c:	b9 01       	movw	r22, r18
    259e:	f5 dd       	rcall	.-1046   	; 0x218a <derived_function>
	update(in_state, seed);
    25a0:	be 01       	movw	r22, r28
    25a2:	c8 01       	movw	r24, r16
    25a4:	4e df       	rcall	.-356    	; 0x2442 <update>
	//generate_Random(in_state, random, add_data, re_Entrophy, re_add_data, len);
    25a6:	df 91       	pop	r29
    25a8:	cf 91       	pop	r28
    25aa:	1f 91       	pop	r17
    25ac:	0f 91       	pop	r16
    25ae:	08 95       	ret

000025b0 <main>:
 *  Author: 김영범
 */ 
#include "ctr_drbg.h"

int main(void)
{
    25b0:	8f 92       	push	r8
    25b2:	9f 92       	push	r9
    25b4:	af 92       	push	r10
    25b6:	bf 92       	push	r11
    25b8:	cf 92       	push	r12
    25ba:	df 92       	push	r13
    25bc:	ef 92       	push	r14
    25be:	ff 92       	push	r15
    25c0:	0f 93       	push	r16
    25c2:	1f 93       	push	r17
    25c4:	cf 93       	push	r28
    25c6:	df 93       	push	r29
    25c8:	cd b7       	in	r28, 0x3d	; 61
    25ca:	de b7       	in	r29, 0x3e	; 62
    25cc:	c0 58       	subi	r28, 0x80	; 128
    25ce:	d1 09       	sbc	r29, r1
    25d0:	0f b6       	in	r0, 0x3f	; 63
    25d2:	f8 94       	cli
    25d4:	de bf       	out	0x3e, r29	; 62
    25d6:	0f be       	out	0x3f, r0	; 63
    25d8:	cd bf       	out	0x3d, r28	; 61
	
	/* Replace with your application code */
	volatile st_state INSTATE = {0x00};
    25da:	ce 01       	movw	r24, r28
    25dc:	01 96       	adiw	r24, 0x01	; 1
    25de:	4c 01       	movw	r8, r24
    25e0:	82 e2       	ldi	r24, 0x22	; 34
    25e2:	f4 01       	movw	r30, r8
    25e4:	11 92       	st	Z+, r1
    25e6:	8a 95       	dec	r24
    25e8:	e9 f7       	brne	.-6      	; 0x25e4 <main+0x34>
	volatile st_state *in_state = &INSTATE;
	st_len st_LEN = {0x00};
    25ea:	be 01       	movw	r22, r28
    25ec:	6d 5d       	subi	r22, 0xDD	; 221
    25ee:	7f 4f       	sbci	r23, 0xFF	; 255
    25f0:	86 e0       	ldi	r24, 0x06	; 6
    25f2:	fb 01       	movw	r30, r22
    25f4:	11 92       	st	Z+, r1
    25f6:	8a 95       	dec	r24
    25f8:	e9 f7       	brne	.-6      	; 0x25f4 <main+0x44>
	st_len *len = &st_LEN;

	u8 in[24] = {0x3D, 0xA9, 0x3E, 0xDD, 0x17, 0x94, 0x4F, 0x79, 0x1E, 0x33, 0x99, 0x67, 0x2C, 0xC6, 0xEA, 0x93, 0x8A, 0x3F, 0xFF, 0x14, 0x09, 0x02, 0x3D, 0x0C};
    25fa:	88 e1       	ldi	r24, 0x18	; 24
    25fc:	e6 e1       	ldi	r30, 0x16	; 22
    25fe:	f3 e0       	ldi	r31, 0x03	; 3
    2600:	de 01       	movw	r26, r28
    2602:	99 96       	adiw	r26, 0x29	; 41
    2604:	01 90       	ld	r0, Z+
    2606:	0d 92       	st	X+, r0
    2608:	8a 95       	dec	r24
    260a:	e1 f7       	brne	.-8      	; 0x2604 <main+0x54>
	u8 seed[SEED_LEN] = {0x00};
    260c:	80 e2       	ldi	r24, 0x20	; 32
    260e:	9e 01       	movw	r18, r28
    2610:	2f 5b       	subi	r18, 0xBF	; 191
    2612:	3f 4f       	sbci	r19, 0xFF	; 255
    2614:	f9 01       	movw	r30, r18
    2616:	48 2f       	mov	r20, r24
    2618:	11 92       	st	Z+, r1
    261a:	4a 95       	dec	r20
    261c:	e9 f7       	brne	.-6      	; 0x2618 <main+0x68>
	u8 *re_add_data = NULL;
	u8 *add_data = NULL;
	u8 random[16] = {0x00};
    261e:	8e 01       	movw	r16, r28
    2620:	0f 59       	subi	r16, 0x9F	; 159
    2622:	1f 4f       	sbci	r17, 0xFF	; 255
    2624:	90 e1       	ldi	r25, 0x10	; 16
    2626:	f8 01       	movw	r30, r16
    2628:	49 2f       	mov	r20, r25
    262a:	11 92       	st	Z+, r1
    262c:	4a 95       	dec	r20
    262e:	e9 f7       	brne	.-6      	; 0x262a <main+0x7a>
	u8 re_Entrophy[16] = {0x4E, 0xE9, 0xA2, 0xCF, 0x6E, 0x8B, 0xFA, 0x48, 0xBB, 0xBE, 0x56, 0x99, 0xDD, 0x5A, 0xBA, 0x02};
    2630:	40 e1       	ldi	r20, 0x10	; 16
    2632:	ee e2       	ldi	r30, 0x2E	; 46
    2634:	f3 e0       	ldi	r31, 0x03	; 3
    2636:	de 01       	movw	r26, r28
    2638:	af 58       	subi	r26, 0x8F	; 143
    263a:	bf 4f       	sbci	r27, 0xFF	; 255
    263c:	01 90       	ld	r0, Z+
    263e:	0d 92       	st	X+, r0
    2640:	4a 95       	dec	r20
    2642:	e1 f7       	brne	.-8      	; 0x263c <main+0x8c>

	in_state->prediction_flag = FALSE;
    2644:	1a a2       	std	Y+34, r1	; 0x22
	len->add_data = 16;
    2646:	9b a3       	std	Y+35, r25	; 0x23
	len->general_len = 16;
    2648:	9f a3       	std	Y+39, r25	; 0x27
	len->re_adddata = 16;
    264a:	9c a3       	std	Y+36, r25	; 0x24
	len->re_Entrophy = 16;
    264c:	9d a3       	std	Y+37, r25	; 0x25
	len->seed = 32;
    264e:	8e a3       	std	Y+38, r24	; 0x26
	len->input_len = 24;
    2650:	88 e1       	ldi	r24, 0x18	; 24
    2652:	88 a7       	std	Y+40, r24	; 0x28
aes192_ctx_t aes_test;
	#else //KEY_BIT ==256
aes256_ctx_t aes_test;
	#endif

	CTR_DRBG(in_state, len, in, seed, random, re_add_data, re_Entrophy, add_data);
    2654:	a1 2c       	mov	r10, r1
    2656:	b1 2c       	mov	r11, r1
    2658:	ce 01       	movw	r24, r28
    265a:	8f 58       	subi	r24, 0x8F	; 143
    265c:	9f 4f       	sbci	r25, 0xFF	; 255
    265e:	6c 01       	movw	r12, r24
    2660:	e1 2c       	mov	r14, r1
    2662:	f1 2c       	mov	r15, r1
    2664:	ae 01       	movw	r20, r28
    2666:	47 5d       	subi	r20, 0xD7	; 215
    2668:	5f 4f       	sbci	r21, 0xFF	; 255
    266a:	c4 01       	movw	r24, r8
    266c:	8d df       	rcall	.-230    	; 0x2588 <CTR_DRBG>

	return 0;
}
    266e:	80 e0       	ldi	r24, 0x00	; 0
    2670:	90 e0       	ldi	r25, 0x00	; 0
    2672:	c0 58       	subi	r28, 0x80	; 128
    2674:	df 4f       	sbci	r29, 0xFF	; 255
    2676:	0f b6       	in	r0, 0x3f	; 63
    2678:	f8 94       	cli
    267a:	de bf       	out	0x3e, r29	; 62
    267c:	0f be       	out	0x3f, r0	; 63
    267e:	cd bf       	out	0x3d, r28	; 61
    2680:	df 91       	pop	r29
    2682:	cf 91       	pop	r28
    2684:	1f 91       	pop	r17
    2686:	0f 91       	pop	r16
    2688:	ff 90       	pop	r15
    268a:	ef 90       	pop	r14
    268c:	df 90       	pop	r13
    268e:	cf 90       	pop	r12
    2690:	bf 90       	pop	r11
    2692:	af 90       	pop	r10
    2694:	9f 90       	pop	r9
    2696:	8f 90       	pop	r8
    2698:	08 95       	ret

0000269a <calloc>:
    269a:	0f 93       	push	r16
    269c:	1f 93       	push	r17
    269e:	cf 93       	push	r28
    26a0:	df 93       	push	r29
    26a2:	86 9f       	mul	r24, r22
    26a4:	80 01       	movw	r16, r0
    26a6:	87 9f       	mul	r24, r23
    26a8:	10 0d       	add	r17, r0
    26aa:	96 9f       	mul	r25, r22
    26ac:	10 0d       	add	r17, r0
    26ae:	11 24       	eor	r1, r1
    26b0:	c8 01       	movw	r24, r16
    26b2:	0d d0       	rcall	.+26     	; 0x26ce <malloc>
    26b4:	ec 01       	movw	r28, r24
    26b6:	00 97       	sbiw	r24, 0x00	; 0
    26b8:	21 f0       	breq	.+8      	; 0x26c2 <calloc+0x28>
    26ba:	a8 01       	movw	r20, r16
    26bc:	60 e0       	ldi	r22, 0x00	; 0
    26be:	70 e0       	ldi	r23, 0x00	; 0
    26c0:	27 d1       	rcall	.+590    	; 0x2910 <memset>
    26c2:	ce 01       	movw	r24, r28
    26c4:	df 91       	pop	r29
    26c6:	cf 91       	pop	r28
    26c8:	1f 91       	pop	r17
    26ca:	0f 91       	pop	r16
    26cc:	08 95       	ret

000026ce <malloc>:
    26ce:	0f 93       	push	r16
    26d0:	1f 93       	push	r17
    26d2:	cf 93       	push	r28
    26d4:	df 93       	push	r29
    26d6:	82 30       	cpi	r24, 0x02	; 2
    26d8:	91 05       	cpc	r25, r1
    26da:	10 f4       	brcc	.+4      	; 0x26e0 <malloc+0x12>
    26dc:	82 e0       	ldi	r24, 0x02	; 2
    26de:	90 e0       	ldi	r25, 0x00	; 0
    26e0:	e0 91 40 03 	lds	r30, 0x0340	; 0x800340 <__flp>
    26e4:	f0 91 41 03 	lds	r31, 0x0341	; 0x800341 <__flp+0x1>
    26e8:	20 e0       	ldi	r18, 0x00	; 0
    26ea:	30 e0       	ldi	r19, 0x00	; 0
    26ec:	a0 e0       	ldi	r26, 0x00	; 0
    26ee:	b0 e0       	ldi	r27, 0x00	; 0
    26f0:	30 97       	sbiw	r30, 0x00	; 0
    26f2:	19 f1       	breq	.+70     	; 0x273a <malloc+0x6c>
    26f4:	40 81       	ld	r20, Z
    26f6:	51 81       	ldd	r21, Z+1	; 0x01
    26f8:	02 81       	ldd	r16, Z+2	; 0x02
    26fa:	13 81       	ldd	r17, Z+3	; 0x03
    26fc:	48 17       	cp	r20, r24
    26fe:	59 07       	cpc	r21, r25
    2700:	c8 f0       	brcs	.+50     	; 0x2734 <malloc+0x66>
    2702:	84 17       	cp	r24, r20
    2704:	95 07       	cpc	r25, r21
    2706:	69 f4       	brne	.+26     	; 0x2722 <malloc+0x54>
    2708:	10 97       	sbiw	r26, 0x00	; 0
    270a:	31 f0       	breq	.+12     	; 0x2718 <malloc+0x4a>
    270c:	12 96       	adiw	r26, 0x02	; 2
    270e:	0c 93       	st	X, r16
    2710:	12 97       	sbiw	r26, 0x02	; 2
    2712:	13 96       	adiw	r26, 0x03	; 3
    2714:	1c 93       	st	X, r17
    2716:	27 c0       	rjmp	.+78     	; 0x2766 <malloc+0x98>
    2718:	00 93 40 03 	sts	0x0340, r16	; 0x800340 <__flp>
    271c:	10 93 41 03 	sts	0x0341, r17	; 0x800341 <__flp+0x1>
    2720:	22 c0       	rjmp	.+68     	; 0x2766 <malloc+0x98>
    2722:	21 15       	cp	r18, r1
    2724:	31 05       	cpc	r19, r1
    2726:	19 f0       	breq	.+6      	; 0x272e <malloc+0x60>
    2728:	42 17       	cp	r20, r18
    272a:	53 07       	cpc	r21, r19
    272c:	18 f4       	brcc	.+6      	; 0x2734 <malloc+0x66>
    272e:	9a 01       	movw	r18, r20
    2730:	bd 01       	movw	r22, r26
    2732:	ef 01       	movw	r28, r30
    2734:	df 01       	movw	r26, r30
    2736:	f8 01       	movw	r30, r16
    2738:	db cf       	rjmp	.-74     	; 0x26f0 <malloc+0x22>
    273a:	21 15       	cp	r18, r1
    273c:	31 05       	cpc	r19, r1
    273e:	f9 f0       	breq	.+62     	; 0x277e <malloc+0xb0>
    2740:	28 1b       	sub	r18, r24
    2742:	39 0b       	sbc	r19, r25
    2744:	24 30       	cpi	r18, 0x04	; 4
    2746:	31 05       	cpc	r19, r1
    2748:	80 f4       	brcc	.+32     	; 0x276a <malloc+0x9c>
    274a:	8a 81       	ldd	r24, Y+2	; 0x02
    274c:	9b 81       	ldd	r25, Y+3	; 0x03
    274e:	61 15       	cp	r22, r1
    2750:	71 05       	cpc	r23, r1
    2752:	21 f0       	breq	.+8      	; 0x275c <malloc+0x8e>
    2754:	fb 01       	movw	r30, r22
    2756:	93 83       	std	Z+3, r25	; 0x03
    2758:	82 83       	std	Z+2, r24	; 0x02
    275a:	04 c0       	rjmp	.+8      	; 0x2764 <malloc+0x96>
    275c:	90 93 41 03 	sts	0x0341, r25	; 0x800341 <__flp+0x1>
    2760:	80 93 40 03 	sts	0x0340, r24	; 0x800340 <__flp>
    2764:	fe 01       	movw	r30, r28
    2766:	32 96       	adiw	r30, 0x02	; 2
    2768:	44 c0       	rjmp	.+136    	; 0x27f2 <malloc+0x124>
    276a:	fe 01       	movw	r30, r28
    276c:	e2 0f       	add	r30, r18
    276e:	f3 1f       	adc	r31, r19
    2770:	81 93       	st	Z+, r24
    2772:	91 93       	st	Z+, r25
    2774:	22 50       	subi	r18, 0x02	; 2
    2776:	31 09       	sbc	r19, r1
    2778:	39 83       	std	Y+1, r19	; 0x01
    277a:	28 83       	st	Y, r18
    277c:	3a c0       	rjmp	.+116    	; 0x27f2 <malloc+0x124>
    277e:	20 91 3e 03 	lds	r18, 0x033E	; 0x80033e <__data_end>
    2782:	30 91 3f 03 	lds	r19, 0x033F	; 0x80033f <__data_end+0x1>
    2786:	23 2b       	or	r18, r19
    2788:	41 f4       	brne	.+16     	; 0x279a <malloc+0xcc>
    278a:	20 91 02 03 	lds	r18, 0x0302	; 0x800302 <__malloc_heap_start>
    278e:	30 91 03 03 	lds	r19, 0x0303	; 0x800303 <__malloc_heap_start+0x1>
    2792:	30 93 3f 03 	sts	0x033F, r19	; 0x80033f <__data_end+0x1>
    2796:	20 93 3e 03 	sts	0x033E, r18	; 0x80033e <__data_end>
    279a:	20 91 00 03 	lds	r18, 0x0300	; 0x800300 <__malloc_heap_end>
    279e:	30 91 01 03 	lds	r19, 0x0301	; 0x800301 <__malloc_heap_end+0x1>
    27a2:	21 15       	cp	r18, r1
    27a4:	31 05       	cpc	r19, r1
    27a6:	41 f4       	brne	.+16     	; 0x27b8 <malloc+0xea>
    27a8:	2d b7       	in	r18, 0x3d	; 61
    27aa:	3e b7       	in	r19, 0x3e	; 62
    27ac:	40 91 04 03 	lds	r20, 0x0304	; 0x800304 <__malloc_margin>
    27b0:	50 91 05 03 	lds	r21, 0x0305	; 0x800305 <__malloc_margin+0x1>
    27b4:	24 1b       	sub	r18, r20
    27b6:	35 0b       	sbc	r19, r21
    27b8:	e0 91 3e 03 	lds	r30, 0x033E	; 0x80033e <__data_end>
    27bc:	f0 91 3f 03 	lds	r31, 0x033F	; 0x80033f <__data_end+0x1>
    27c0:	e2 17       	cp	r30, r18
    27c2:	f3 07       	cpc	r31, r19
    27c4:	a0 f4       	brcc	.+40     	; 0x27ee <malloc+0x120>
    27c6:	2e 1b       	sub	r18, r30
    27c8:	3f 0b       	sbc	r19, r31
    27ca:	28 17       	cp	r18, r24
    27cc:	39 07       	cpc	r19, r25
    27ce:	78 f0       	brcs	.+30     	; 0x27ee <malloc+0x120>
    27d0:	ac 01       	movw	r20, r24
    27d2:	4e 5f       	subi	r20, 0xFE	; 254
    27d4:	5f 4f       	sbci	r21, 0xFF	; 255
    27d6:	24 17       	cp	r18, r20
    27d8:	35 07       	cpc	r19, r21
    27da:	48 f0       	brcs	.+18     	; 0x27ee <malloc+0x120>
    27dc:	4e 0f       	add	r20, r30
    27de:	5f 1f       	adc	r21, r31
    27e0:	50 93 3f 03 	sts	0x033F, r21	; 0x80033f <__data_end+0x1>
    27e4:	40 93 3e 03 	sts	0x033E, r20	; 0x80033e <__data_end>
    27e8:	81 93       	st	Z+, r24
    27ea:	91 93       	st	Z+, r25
    27ec:	02 c0       	rjmp	.+4      	; 0x27f2 <malloc+0x124>
    27ee:	e0 e0       	ldi	r30, 0x00	; 0
    27f0:	f0 e0       	ldi	r31, 0x00	; 0
    27f2:	cf 01       	movw	r24, r30
    27f4:	df 91       	pop	r29
    27f6:	cf 91       	pop	r28
    27f8:	1f 91       	pop	r17
    27fa:	0f 91       	pop	r16
    27fc:	08 95       	ret

000027fe <free>:
    27fe:	cf 93       	push	r28
    2800:	df 93       	push	r29
    2802:	00 97       	sbiw	r24, 0x00	; 0
    2804:	09 f4       	brne	.+2      	; 0x2808 <free+0xa>
    2806:	81 c0       	rjmp	.+258    	; 0x290a <free+0x10c>
    2808:	fc 01       	movw	r30, r24
    280a:	32 97       	sbiw	r30, 0x02	; 2
    280c:	13 82       	std	Z+3, r1	; 0x03
    280e:	12 82       	std	Z+2, r1	; 0x02
    2810:	a0 91 40 03 	lds	r26, 0x0340	; 0x800340 <__flp>
    2814:	b0 91 41 03 	lds	r27, 0x0341	; 0x800341 <__flp+0x1>
    2818:	10 97       	sbiw	r26, 0x00	; 0
    281a:	81 f4       	brne	.+32     	; 0x283c <free+0x3e>
    281c:	20 81       	ld	r18, Z
    281e:	31 81       	ldd	r19, Z+1	; 0x01
    2820:	82 0f       	add	r24, r18
    2822:	93 1f       	adc	r25, r19
    2824:	20 91 3e 03 	lds	r18, 0x033E	; 0x80033e <__data_end>
    2828:	30 91 3f 03 	lds	r19, 0x033F	; 0x80033f <__data_end+0x1>
    282c:	28 17       	cp	r18, r24
    282e:	39 07       	cpc	r19, r25
    2830:	51 f5       	brne	.+84     	; 0x2886 <free+0x88>
    2832:	f0 93 3f 03 	sts	0x033F, r31	; 0x80033f <__data_end+0x1>
    2836:	e0 93 3e 03 	sts	0x033E, r30	; 0x80033e <__data_end>
    283a:	67 c0       	rjmp	.+206    	; 0x290a <free+0x10c>
    283c:	ed 01       	movw	r28, r26
    283e:	20 e0       	ldi	r18, 0x00	; 0
    2840:	30 e0       	ldi	r19, 0x00	; 0
    2842:	ce 17       	cp	r28, r30
    2844:	df 07       	cpc	r29, r31
    2846:	40 f4       	brcc	.+16     	; 0x2858 <free+0x5a>
    2848:	4a 81       	ldd	r20, Y+2	; 0x02
    284a:	5b 81       	ldd	r21, Y+3	; 0x03
    284c:	9e 01       	movw	r18, r28
    284e:	41 15       	cp	r20, r1
    2850:	51 05       	cpc	r21, r1
    2852:	f1 f0       	breq	.+60     	; 0x2890 <free+0x92>
    2854:	ea 01       	movw	r28, r20
    2856:	f5 cf       	rjmp	.-22     	; 0x2842 <free+0x44>
    2858:	d3 83       	std	Z+3, r29	; 0x03
    285a:	c2 83       	std	Z+2, r28	; 0x02
    285c:	40 81       	ld	r20, Z
    285e:	51 81       	ldd	r21, Z+1	; 0x01
    2860:	84 0f       	add	r24, r20
    2862:	95 1f       	adc	r25, r21
    2864:	c8 17       	cp	r28, r24
    2866:	d9 07       	cpc	r29, r25
    2868:	59 f4       	brne	.+22     	; 0x2880 <free+0x82>
    286a:	88 81       	ld	r24, Y
    286c:	99 81       	ldd	r25, Y+1	; 0x01
    286e:	84 0f       	add	r24, r20
    2870:	95 1f       	adc	r25, r21
    2872:	02 96       	adiw	r24, 0x02	; 2
    2874:	91 83       	std	Z+1, r25	; 0x01
    2876:	80 83       	st	Z, r24
    2878:	8a 81       	ldd	r24, Y+2	; 0x02
    287a:	9b 81       	ldd	r25, Y+3	; 0x03
    287c:	93 83       	std	Z+3, r25	; 0x03
    287e:	82 83       	std	Z+2, r24	; 0x02
    2880:	21 15       	cp	r18, r1
    2882:	31 05       	cpc	r19, r1
    2884:	29 f4       	brne	.+10     	; 0x2890 <free+0x92>
    2886:	f0 93 41 03 	sts	0x0341, r31	; 0x800341 <__flp+0x1>
    288a:	e0 93 40 03 	sts	0x0340, r30	; 0x800340 <__flp>
    288e:	3d c0       	rjmp	.+122    	; 0x290a <free+0x10c>
    2890:	e9 01       	movw	r28, r18
    2892:	fb 83       	std	Y+3, r31	; 0x03
    2894:	ea 83       	std	Y+2, r30	; 0x02
    2896:	49 91       	ld	r20, Y+
    2898:	59 91       	ld	r21, Y+
    289a:	c4 0f       	add	r28, r20
    289c:	d5 1f       	adc	r29, r21
    289e:	ec 17       	cp	r30, r28
    28a0:	fd 07       	cpc	r31, r29
    28a2:	61 f4       	brne	.+24     	; 0x28bc <free+0xbe>
    28a4:	80 81       	ld	r24, Z
    28a6:	91 81       	ldd	r25, Z+1	; 0x01
    28a8:	84 0f       	add	r24, r20
    28aa:	95 1f       	adc	r25, r21
    28ac:	02 96       	adiw	r24, 0x02	; 2
    28ae:	e9 01       	movw	r28, r18
    28b0:	99 83       	std	Y+1, r25	; 0x01
    28b2:	88 83       	st	Y, r24
    28b4:	82 81       	ldd	r24, Z+2	; 0x02
    28b6:	93 81       	ldd	r25, Z+3	; 0x03
    28b8:	9b 83       	std	Y+3, r25	; 0x03
    28ba:	8a 83       	std	Y+2, r24	; 0x02
    28bc:	e0 e0       	ldi	r30, 0x00	; 0
    28be:	f0 e0       	ldi	r31, 0x00	; 0
    28c0:	12 96       	adiw	r26, 0x02	; 2
    28c2:	8d 91       	ld	r24, X+
    28c4:	9c 91       	ld	r25, X
    28c6:	13 97       	sbiw	r26, 0x03	; 3
    28c8:	00 97       	sbiw	r24, 0x00	; 0
    28ca:	19 f0       	breq	.+6      	; 0x28d2 <free+0xd4>
    28cc:	fd 01       	movw	r30, r26
    28ce:	dc 01       	movw	r26, r24
    28d0:	f7 cf       	rjmp	.-18     	; 0x28c0 <free+0xc2>
    28d2:	8d 91       	ld	r24, X+
    28d4:	9c 91       	ld	r25, X
    28d6:	11 97       	sbiw	r26, 0x01	; 1
    28d8:	9d 01       	movw	r18, r26
    28da:	2e 5f       	subi	r18, 0xFE	; 254
    28dc:	3f 4f       	sbci	r19, 0xFF	; 255
    28de:	82 0f       	add	r24, r18
    28e0:	93 1f       	adc	r25, r19
    28e2:	20 91 3e 03 	lds	r18, 0x033E	; 0x80033e <__data_end>
    28e6:	30 91 3f 03 	lds	r19, 0x033F	; 0x80033f <__data_end+0x1>
    28ea:	28 17       	cp	r18, r24
    28ec:	39 07       	cpc	r19, r25
    28ee:	69 f4       	brne	.+26     	; 0x290a <free+0x10c>
    28f0:	30 97       	sbiw	r30, 0x00	; 0
    28f2:	29 f4       	brne	.+10     	; 0x28fe <free+0x100>
    28f4:	10 92 41 03 	sts	0x0341, r1	; 0x800341 <__flp+0x1>
    28f8:	10 92 40 03 	sts	0x0340, r1	; 0x800340 <__flp>
    28fc:	02 c0       	rjmp	.+4      	; 0x2902 <free+0x104>
    28fe:	13 82       	std	Z+3, r1	; 0x03
    2900:	12 82       	std	Z+2, r1	; 0x02
    2902:	b0 93 3f 03 	sts	0x033F, r27	; 0x80033f <__data_end+0x1>
    2906:	a0 93 3e 03 	sts	0x033E, r26	; 0x80033e <__data_end>
    290a:	df 91       	pop	r29
    290c:	cf 91       	pop	r28
    290e:	08 95       	ret

00002910 <memset>:
    2910:	dc 01       	movw	r26, r24
    2912:	01 c0       	rjmp	.+2      	; 0x2916 <memset+0x6>
    2914:	6d 93       	st	X+, r22
    2916:	41 50       	subi	r20, 0x01	; 1
    2918:	50 40       	sbci	r21, 0x00	; 0
    291a:	e0 f7       	brcc	.-8      	; 0x2914 <memset+0x4>
    291c:	08 95       	ret

0000291e <_exit>:
    291e:	f8 94       	cli

00002920 <__stop_program>:
    2920:	ff cf       	rjmp	.-2      	; 0x2920 <__stop_program>
