
AES_8bit Asm_fast.elf:     file format elf32-avr

Sections:
Idx Name          Size      VMA       LMA       File off  Algn
  0 .data         00000310  00800100  00000442  000004b6  2**0
                  CONTENTS, ALLOC, LOAD, DATA
  1 .text         00000442  00000000  00000000  00000074  2**1
                  CONTENTS, ALLOC, LOAD, READONLY, CODE
  2 .comment      00000030  00000000  00000000  000007c6  2**0
                  CONTENTS, READONLY
  3 .note.gnu.avr.deviceinfo 00000040  00000000  00000000  000007f8  2**2
                  CONTENTS, READONLY
  4 .debug_aranges 00000060  00000000  00000000  00000838  2**3
                  CONTENTS, READONLY, DEBUGGING
  5 .debug_info   00000829  00000000  00000000  00000898  2**0
                  CONTENTS, READONLY, DEBUGGING
  6 .debug_abbrev 0000067f  00000000  00000000  000010c1  2**0
                  CONTENTS, READONLY, DEBUGGING
  7 .debug_line   000009e5  00000000  00000000  00001740  2**0
                  CONTENTS, READONLY, DEBUGGING
  8 .debug_frame  00000038  00000000  00000000  00002128  2**2
                  CONTENTS, READONLY, DEBUGGING
  9 .debug_str    00000371  00000000  00000000  00002160  2**0
                  CONTENTS, READONLY, DEBUGGING
 10 .debug_loc    00000048  00000000  00000000  000024d1  2**0
                  CONTENTS, READONLY, DEBUGGING
 11 .debug_ranges 00000010  00000000  00000000  00002519  2**0
                  CONTENTS, READONLY, DEBUGGING

Disassembly of section .text:

00000000 <__vectors>:
   0:	33 c0       	rjmp	.+102    	; 0x68 <__ctors_end>
   2:	00 00       	nop
   4:	44 c0       	rjmp	.+136    	; 0x8e <__bad_interrupt>
   6:	00 00       	nop
   8:	42 c0       	rjmp	.+132    	; 0x8e <__bad_interrupt>
   a:	00 00       	nop
   c:	40 c0       	rjmp	.+128    	; 0x8e <__bad_interrupt>
   e:	00 00       	nop
  10:	3e c0       	rjmp	.+124    	; 0x8e <__bad_interrupt>
  12:	00 00       	nop
  14:	3c c0       	rjmp	.+120    	; 0x8e <__bad_interrupt>
  16:	00 00       	nop
  18:	3a c0       	rjmp	.+116    	; 0x8e <__bad_interrupt>
  1a:	00 00       	nop
  1c:	38 c0       	rjmp	.+112    	; 0x8e <__bad_interrupt>
  1e:	00 00       	nop
  20:	36 c0       	rjmp	.+108    	; 0x8e <__bad_interrupt>
  22:	00 00       	nop
  24:	34 c0       	rjmp	.+104    	; 0x8e <__bad_interrupt>
  26:	00 00       	nop
  28:	32 c0       	rjmp	.+100    	; 0x8e <__bad_interrupt>
  2a:	00 00       	nop
  2c:	30 c0       	rjmp	.+96     	; 0x8e <__bad_interrupt>
  2e:	00 00       	nop
  30:	2e c0       	rjmp	.+92     	; 0x8e <__bad_interrupt>
  32:	00 00       	nop
  34:	2c c0       	rjmp	.+88     	; 0x8e <__bad_interrupt>
  36:	00 00       	nop
  38:	2a c0       	rjmp	.+84     	; 0x8e <__bad_interrupt>
  3a:	00 00       	nop
  3c:	28 c0       	rjmp	.+80     	; 0x8e <__bad_interrupt>
  3e:	00 00       	nop
  40:	26 c0       	rjmp	.+76     	; 0x8e <__bad_interrupt>
  42:	00 00       	nop
  44:	24 c0       	rjmp	.+72     	; 0x8e <__bad_interrupt>
  46:	00 00       	nop
  48:	22 c0       	rjmp	.+68     	; 0x8e <__bad_interrupt>
  4a:	00 00       	nop
  4c:	20 c0       	rjmp	.+64     	; 0x8e <__bad_interrupt>
  4e:	00 00       	nop
  50:	1e c0       	rjmp	.+60     	; 0x8e <__bad_interrupt>
  52:	00 00       	nop
  54:	1c c0       	rjmp	.+56     	; 0x8e <__bad_interrupt>
  56:	00 00       	nop
  58:	1a c0       	rjmp	.+52     	; 0x8e <__bad_interrupt>
  5a:	00 00       	nop
  5c:	18 c0       	rjmp	.+48     	; 0x8e <__bad_interrupt>
  5e:	00 00       	nop
  60:	16 c0       	rjmp	.+44     	; 0x8e <__bad_interrupt>
  62:	00 00       	nop
  64:	14 c0       	rjmp	.+40     	; 0x8e <__bad_interrupt>
	...

00000068 <__ctors_end>:
  68:	11 24       	eor	r1, r1
  6a:	1f be       	out	0x3f, r1	; 63
  6c:	cf ef       	ldi	r28, 0xFF	; 255
  6e:	d8 e0       	ldi	r29, 0x08	; 8
  70:	de bf       	out	0x3e, r29	; 62
  72:	cd bf       	out	0x3d, r28	; 61

00000074 <__do_copy_data>:
  74:	14 e0       	ldi	r17, 0x04	; 4
  76:	a0 e0       	ldi	r26, 0x00	; 0
  78:	b1 e0       	ldi	r27, 0x01	; 1
  7a:	e2 e4       	ldi	r30, 0x42	; 66
  7c:	f4 e0       	ldi	r31, 0x04	; 4
  7e:	02 c0       	rjmp	.+4      	; 0x84 <__do_copy_data+0x10>
  80:	05 90       	lpm	r0, Z+
  82:	0d 92       	st	X+, r0
  84:	a0 31       	cpi	r26, 0x10	; 16
  86:	b1 07       	cpc	r27, r17
  88:	d9 f7       	brne	.-10     	; 0x80 <__do_copy_data+0xc>
  8a:	81 d1       	rcall	.+770    	; 0x38e <main>
  8c:	d8 c1       	rjmp	.+944    	; 0x43e <_exit>

0000008e <__bad_interrupt>:
  8e:	b8 cf       	rjmp	.-144    	; 0x0 <__vectors>

00000090 <aes256_enc>:
  90:	4e e0       	ldi	r20, 0x0E	; 14
  92:	03 c0       	rjmp	.+6      	; 0x9a <aes_encrypt_core>

00000094 <aes192_enc>:
  94:	4c e0       	ldi	r20, 0x0C	; 12
  96:	01 c0       	rjmp	.+2      	; 0x9a <aes_encrypt_core>

00000098 <aes128_enc>:
  98:	4a e0       	ldi	r20, 0x0A	; 10

0000009a <aes_encrypt_core>:
  9a:	cf 93       	push	r28
  9c:	df 93       	push	r29
  9e:	8f 93       	push	r24
  a0:	9f 93       	push	r25
  a2:	db 01       	movw	r26, r22
  a4:	fc 01       	movw	r30, r24
  a6:	84 2f       	mov	r24, r20
  a8:	e8 94       	clt
  aa:	01 90       	ld	r0, Z+
  ac:	11 90       	ld	r1, Z+
  ae:	21 90       	ld	r2, Z+
  b0:	31 90       	ld	r3, Z+
  b2:	41 90       	ld	r4, Z+
  b4:	51 90       	ld	r5, Z+
  b6:	61 90       	ld	r6, Z+
  b8:	71 90       	ld	r7, Z+
  ba:	81 90       	ld	r8, Z+
  bc:	91 90       	ld	r9, Z+
  be:	a1 90       	ld	r10, Z+
  c0:	b1 90       	ld	r11, Z+
  c2:	c1 90       	ld	r12, Z+
  c4:	d1 90       	ld	r13, Z+
  c6:	e1 90       	ld	r14, Z+
  c8:	f1 90       	ld	r15, Z+
  ca:	f1 e0       	ldi	r31, 0x01	; 1
  cc:	d2 e0       	ldi	r29, 0x02	; 2
  ce:	0d 91       	ld	r16, X+
  d0:	00 26       	eor	r0, r16
  d2:	0d 91       	ld	r16, X+
  d4:	10 26       	eor	r1, r16
  d6:	0d 91       	ld	r16, X+
  d8:	20 26       	eor	r2, r16
  da:	0d 91       	ld	r16, X+
  dc:	30 26       	eor	r3, r16
  de:	0d 91       	ld	r16, X+
  e0:	40 26       	eor	r4, r16
  e2:	0d 91       	ld	r16, X+
  e4:	50 26       	eor	r5, r16
  e6:	0d 91       	ld	r16, X+
  e8:	60 26       	eor	r6, r16
  ea:	0d 91       	ld	r16, X+
  ec:	70 26       	eor	r7, r16
  ee:	0d 91       	ld	r16, X+
  f0:	80 26       	eor	r8, r16
  f2:	0d 91       	ld	r16, X+
  f4:	90 26       	eor	r9, r16
  f6:	0d 91       	ld	r16, X+
  f8:	a0 26       	eor	r10, r16
  fa:	0d 91       	ld	r16, X+
  fc:	b0 26       	eor	r11, r16
  fe:	0d 91       	ld	r16, X+
 100:	c0 26       	eor	r12, r16
 102:	0d 91       	ld	r16, X+
 104:	d0 26       	eor	r13, r16
 106:	0d 91       	ld	r16, X+
 108:	e0 26       	eor	r14, r16
 10a:	0d 91       	ld	r16, X+
 10c:	f0 26       	eor	r15, r16
 10e:	ae f4       	brtc	.+42     	; 0x13a <exit+0x2a>

00000110 <exit>:
 110:	ff 91       	pop	r31
 112:	ef 91       	pop	r30
 114:	01 92       	st	Z+, r0
 116:	11 92       	st	Z+, r1
 118:	21 92       	st	Z+, r2
 11a:	31 92       	st	Z+, r3
 11c:	41 92       	st	Z+, r4
 11e:	51 92       	st	Z+, r5
 120:	61 92       	st	Z+, r6
 122:	71 92       	st	Z+, r7
 124:	81 92       	st	Z+, r8
 126:	91 92       	st	Z+, r9
 128:	a1 92       	st	Z+, r10
 12a:	b1 92       	st	Z+, r11
 12c:	c1 92       	st	Z+, r12
 12e:	d1 92       	st	Z+, r13
 130:	e1 92       	st	Z+, r14
 132:	f1 92       	st	Z+, r15
 134:	df 91       	pop	r29
 136:	cf 91       	pop	r28
 138:	08 95       	ret
 13a:	8a 95       	dec	r24
 13c:	39 f5       	brne	.+78     	; 0x18c <exit+0x7c>
 13e:	01 f0       	breq	.+0      	; 0x140 <exit+0x30>
 140:	e0 2d       	mov	r30, r0
 142:	00 80       	ld	r0, Z
 144:	e4 2d       	mov	r30, r4
 146:	40 80       	ld	r4, Z
 148:	e8 2d       	mov	r30, r8
 14a:	80 80       	ld	r8, Z
 14c:	ec 2d       	mov	r30, r12
 14e:	c0 80       	ld	r12, Z
 150:	e1 2d       	mov	r30, r1
 152:	40 81       	ld	r20, Z
 154:	e5 2d       	mov	r30, r5
 156:	10 80       	ld	r1, Z
 158:	e9 2d       	mov	r30, r9
 15a:	50 80       	ld	r5, Z
 15c:	ed 2d       	mov	r30, r13
 15e:	90 80       	ld	r9, Z
 160:	d4 2e       	mov	r13, r20
 162:	e2 2d       	mov	r30, r2
 164:	40 81       	ld	r20, Z
 166:	e6 2d       	mov	r30, r6
 168:	50 81       	ld	r21, Z
 16a:	ea 2d       	mov	r30, r10
 16c:	20 80       	ld	r2, Z
 16e:	ee 2d       	mov	r30, r14
 170:	60 80       	ld	r6, Z
 172:	a4 2e       	mov	r10, r20
 174:	e5 2e       	mov	r14, r21
 176:	e3 2d       	mov	r30, r3
 178:	40 81       	ld	r20, Z
 17a:	ef 2d       	mov	r30, r15
 17c:	30 80       	ld	r3, Z
 17e:	eb 2d       	mov	r30, r11
 180:	f0 80       	ld	r15, Z
 182:	e7 2d       	mov	r30, r7
 184:	b0 80       	ld	r11, Z
 186:	74 2e       	mov	r7, r20
 188:	68 94       	set
 18a:	a1 cf       	rjmp	.-190    	; 0xce <aes_encrypt_core+0x34>
 18c:	e0 2d       	mov	r30, r0
 18e:	10 81       	ld	r17, Z
 190:	21 2f       	mov	r18, r17
 192:	32 2f       	mov	r19, r18
 194:	c0 2d       	mov	r28, r0
 196:	08 81       	ld	r16, Y
 198:	30 27       	eor	r19, r16
 19a:	e5 2d       	mov	r30, r5
 19c:	40 81       	ld	r20, Z
 19e:	04 27       	eor	r16, r20
 1a0:	24 27       	eor	r18, r20
 1a2:	34 27       	eor	r19, r20
 1a4:	c5 2d       	mov	r28, r5
 1a6:	48 81       	ld	r20, Y
 1a8:	04 27       	eor	r16, r20
 1aa:	14 27       	eor	r17, r20
 1ac:	ea 2d       	mov	r30, r10
 1ae:	40 81       	ld	r20, Z
 1b0:	04 27       	eor	r16, r20
 1b2:	14 27       	eor	r17, r20
 1b4:	34 27       	eor	r19, r20
 1b6:	ca 2d       	mov	r28, r10
 1b8:	48 81       	ld	r20, Y
 1ba:	14 27       	eor	r17, r20
 1bc:	24 27       	eor	r18, r20
 1be:	ef 2d       	mov	r30, r15
 1c0:	40 81       	ld	r20, Z
 1c2:	04 27       	eor	r16, r20
 1c4:	14 27       	eor	r17, r20
 1c6:	24 27       	eor	r18, r20
 1c8:	cf 2d       	mov	r28, r15
 1ca:	48 81       	ld	r20, Y
 1cc:	24 27       	eor	r18, r20
 1ce:	34 27       	eor	r19, r20
 1d0:	00 2e       	mov	r0, r16
 1d2:	e4 2d       	mov	r30, r4
 1d4:	50 81       	ld	r21, Z
 1d6:	65 2f       	mov	r22, r21
 1d8:	76 2f       	mov	r23, r22
 1da:	c4 2d       	mov	r28, r4
 1dc:	48 81       	ld	r20, Y
 1de:	74 27       	eor	r23, r20
 1e0:	e9 2d       	mov	r30, r9
 1e2:	00 81       	ld	r16, Z
 1e4:	40 27       	eor	r20, r16
 1e6:	60 27       	eor	r22, r16
 1e8:	70 27       	eor	r23, r16
 1ea:	c9 2d       	mov	r28, r9
 1ec:	08 81       	ld	r16, Y
 1ee:	40 27       	eor	r20, r16
 1f0:	50 27       	eor	r21, r16
 1f2:	ee 2d       	mov	r30, r14
 1f4:	00 81       	ld	r16, Z
 1f6:	40 27       	eor	r20, r16
 1f8:	50 27       	eor	r21, r16
 1fa:	70 27       	eor	r23, r16
 1fc:	ce 2d       	mov	r28, r14
 1fe:	08 81       	ld	r16, Y
 200:	50 27       	eor	r21, r16
 202:	60 27       	eor	r22, r16
 204:	e3 2d       	mov	r30, r3
 206:	00 81       	ld	r16, Z
 208:	40 27       	eor	r20, r16
 20a:	50 27       	eor	r21, r16
 20c:	60 27       	eor	r22, r16
 20e:	c3 2d       	mov	r28, r3
 210:	08 81       	ld	r16, Y
 212:	60 27       	eor	r22, r16
 214:	70 27       	eor	r23, r16
 216:	44 2e       	mov	r4, r20
 218:	55 2e       	mov	r5, r21
 21a:	33 2e       	mov	r3, r19
 21c:	e8 2d       	mov	r30, r8
 21e:	40 81       	ld	r20, Z
 220:	54 2f       	mov	r21, r20
 222:	35 2f       	mov	r19, r21
 224:	c8 2d       	mov	r28, r8
 226:	08 81       	ld	r16, Y
 228:	30 27       	eor	r19, r16
 22a:	ed 2d       	mov	r30, r13
 22c:	90 81       	ld	r25, Z
 22e:	09 27       	eor	r16, r25
 230:	59 27       	eor	r21, r25
 232:	39 27       	eor	r19, r25
 234:	cd 2d       	mov	r28, r13
 236:	98 81       	ld	r25, Y
 238:	09 27       	eor	r16, r25
 23a:	49 27       	eor	r20, r25
 23c:	e2 2d       	mov	r30, r2
 23e:	90 81       	ld	r25, Z
 240:	09 27       	eor	r16, r25
 242:	49 27       	eor	r20, r25
 244:	39 27       	eor	r19, r25
 246:	c2 2d       	mov	r28, r2
 248:	98 81       	ld	r25, Y
 24a:	49 27       	eor	r20, r25
 24c:	59 27       	eor	r21, r25
 24e:	e7 2d       	mov	r30, r7
 250:	90 81       	ld	r25, Z
 252:	09 27       	eor	r16, r25
 254:	49 27       	eor	r20, r25
 256:	59 27       	eor	r21, r25
 258:	c7 2d       	mov	r28, r7
 25a:	98 81       	ld	r25, Y
 25c:	59 27       	eor	r21, r25
 25e:	39 27       	eor	r19, r25
 260:	80 2e       	mov	r8, r16
 262:	94 2e       	mov	r9, r20
 264:	a5 2e       	mov	r10, r21
 266:	77 2e       	mov	r7, r23
 268:	ec 2d       	mov	r30, r12
 26a:	50 81       	ld	r21, Z
 26c:	75 2f       	mov	r23, r21
 26e:	97 2f       	mov	r25, r23
 270:	cc 2d       	mov	r28, r12
 272:	48 81       	ld	r20, Y
 274:	94 27       	eor	r25, r20
 276:	e1 2d       	mov	r30, r1
 278:	00 81       	ld	r16, Z
 27a:	40 27       	eor	r20, r16
 27c:	70 27       	eor	r23, r16
 27e:	90 27       	eor	r25, r16
 280:	c1 2d       	mov	r28, r1
 282:	08 81       	ld	r16, Y
 284:	40 27       	eor	r20, r16
 286:	50 27       	eor	r21, r16
 288:	e6 2d       	mov	r30, r6
 28a:	00 81       	ld	r16, Z
 28c:	40 27       	eor	r20, r16
 28e:	50 27       	eor	r21, r16
 290:	90 27       	eor	r25, r16
 292:	c6 2d       	mov	r28, r6
 294:	08 81       	ld	r16, Y
 296:	50 27       	eor	r21, r16
 298:	70 27       	eor	r23, r16
 29a:	eb 2d       	mov	r30, r11
 29c:	00 81       	ld	r16, Z
 29e:	40 27       	eor	r20, r16
 2a0:	50 27       	eor	r21, r16
 2a2:	70 27       	eor	r23, r16
 2a4:	cb 2d       	mov	r28, r11
 2a6:	08 81       	ld	r16, Y
 2a8:	70 27       	eor	r23, r16
 2aa:	90 27       	eor	r25, r16
 2ac:	c4 2e       	mov	r12, r20
 2ae:	d5 2e       	mov	r13, r21
 2b0:	e7 2e       	mov	r14, r23
 2b2:	f9 2e       	mov	r15, r25
 2b4:	11 2e       	mov	r1, r17
 2b6:	22 2e       	mov	r2, r18
 2b8:	66 2e       	mov	r6, r22
 2ba:	b3 2e       	mov	r11, r19
 2bc:	08 cf       	rjmp	.-496    	; 0xce <aes_encrypt_core+0x34>

000002be <aes256_init>:
 2be:	ab 01       	movw	r20, r22
 2c0:	71 e0       	ldi	r23, 0x01	; 1
 2c2:	60 e0       	ldi	r22, 0x00	; 0
 2c4:	07 c0       	rjmp	.+14     	; 0x2d4 <aes_init>

000002c6 <aes192_init>:
 2c6:	ab 01       	movw	r20, r22
 2c8:	70 e0       	ldi	r23, 0x00	; 0
 2ca:	60 ec       	ldi	r22, 0xC0	; 192
 2cc:	03 c0       	rjmp	.+6      	; 0x2d4 <aes_init>

000002ce <aes128_init>:
 2ce:	ab 01       	movw	r20, r22
 2d0:	77 27       	eor	r23, r23
 2d2:	60 e8       	ldi	r22, 0x80	; 128

000002d4 <aes_init>:
 2d4:	ef 92       	push	r14
 2d6:	ff 92       	push	r15
 2d8:	0f 93       	push	r16
 2da:	1f 93       	push	r17
 2dc:	cf 93       	push	r28
 2de:	df 93       	push	r29
 2e0:	fa 01       	movw	r30, r20
 2e2:	ea 01       	movw	r28, r20
 2e4:	dc 01       	movw	r26, r24
 2e6:	76 95       	lsr	r23
 2e8:	67 95       	ror	r22
 2ea:	66 95       	lsr	r22
 2ec:	66 95       	lsr	r22
 2ee:	26 2f       	mov	r18, r22
 2f0:	0d 90       	ld	r0, X+
 2f2:	01 92       	st	Z+, r0
 2f4:	2a 95       	dec	r18
 2f6:	e1 f7       	brne	.-8      	; 0x2f0 <aes_init+0x1c>
 2f8:	66 95       	lsr	r22
 2fa:	66 95       	lsr	r22
 2fc:	63 fb       	bst	r22, 3
 2fe:	36 2f       	mov	r19, r22
 300:	76 2f       	mov	r23, r22
 302:	79 5f       	subi	r23, 0xF9	; 249
 304:	77 0f       	add	r23, r23
 306:	77 0f       	add	r23, r23
 308:	df 01       	movw	r26, r30
 30a:	14 97       	sbiw	r26, 0x04	; 4
 30c:	26 2f       	mov	r18, r22
 30e:	f3 e0       	ldi	r31, 0x03	; 3
 310:	7f 01       	movw	r14, r30
 312:	11 e0       	ldi	r17, 0x01	; 1
 314:	4d 91       	ld	r20, X+
 316:	5d 91       	ld	r21, X+
 318:	8d 91       	ld	r24, X+
 31a:	9d 91       	ld	r25, X+
 31c:	32 17       	cp	r19, r18
 31e:	79 f0       	breq	.+30     	; 0x33e <aes_init+0x6a>
 320:	ee f4       	brtc	.+58     	; 0x35c <aes_init+0x88>
 322:	02 2f       	mov	r16, r18
 324:	07 70       	andi	r16, 0x07	; 7
 326:	04 30       	cpi	r16, 0x04	; 4
 328:	c9 f4       	brne	.+50     	; 0x35c <aes_init+0x88>
 32a:	f7 01       	movw	r30, r14
 32c:	e4 2f       	mov	r30, r20
 32e:	40 81       	ld	r20, Z
 330:	e5 2f       	mov	r30, r21
 332:	50 81       	ld	r21, Z
 334:	e8 2f       	mov	r30, r24
 336:	80 81       	ld	r24, Z
 338:	e9 2f       	mov	r30, r25
 33a:	90 81       	ld	r25, Z
 33c:	0f c0       	rjmp	.+30     	; 0x35c <aes_init+0x88>
 33e:	36 0f       	add	r19, r22
 340:	f7 01       	movw	r30, r14
 342:	e4 2f       	mov	r30, r20
 344:	00 81       	ld	r16, Z
 346:	e5 2f       	mov	r30, r21
 348:	40 81       	ld	r20, Z
 34a:	e8 2f       	mov	r30, r24
 34c:	50 81       	ld	r21, Z
 34e:	e9 2f       	mov	r30, r25
 350:	80 81       	ld	r24, Z
 352:	90 2f       	mov	r25, r16
 354:	41 27       	eor	r20, r17
 356:	11 0f       	add	r17, r17
 358:	08 f4       	brcc	.+2      	; 0x35c <aes_init+0x88>
 35a:	1b e1       	ldi	r17, 0x1B	; 27
 35c:	fd 01       	movw	r30, r26
 35e:	09 90       	ld	r0, Y+
 360:	04 26       	eor	r0, r20
 362:	01 92       	st	Z+, r0
 364:	09 90       	ld	r0, Y+
 366:	05 26       	eor	r0, r21
 368:	01 92       	st	Z+, r0
 36a:	09 90       	ld	r0, Y+
 36c:	08 26       	eor	r0, r24
 36e:	01 92       	st	Z+, r0
 370:	09 90       	ld	r0, Y+
 372:	09 26       	eor	r0, r25
 374:	01 92       	st	Z+, r0
 376:	23 95       	inc	r18
 378:	27 17       	cp	r18, r23
 37a:	09 f0       	breq	.+2      	; 0x37e <aes_init+0xaa>
 37c:	cb cf       	rjmp	.-106    	; 0x314 <aes_init+0x40>
 37e:	e8 94       	clt
 380:	df 91       	pop	r29
 382:	cf 91       	pop	r28
 384:	1f 91       	pop	r17
 386:	0f 91       	pop	r16
 388:	ff 90       	pop	r15
 38a:	ef 90       	pop	r14
 38c:	08 95       	ret

0000038e <main>:
void aes192_enc_nobr(void *buffer, aes128_ctx_t *ctx);
void aes256_enc_nobr(void *buffer, aes128_ctx_t *ctx);


int main(void)
{
 38e:	cf 93       	push	r28
 390:	df 93       	push	r29
 392:	cd b7       	in	r28, 0x3d	; 61
 394:	de b7       	in	r29, 0x3e	; 62
 396:	c0 5e       	subi	r28, 0xE0	; 224
 398:	d1 09       	sbc	r29, r1
 39a:	0f b6       	in	r0, 0x3f	; 63
 39c:	f8 94       	cli
 39e:	de bf       	out	0x3e, r29	; 62
 3a0:	0f be       	out	0x3f, r0	; 63
 3a2:	cd bf       	out	0x3d, r28	; 61
	/* Replace with your application code */

	u8 key[16] = {0, 1, 2, 3, 4, 5, 6, 7, 8, 9, 10, 11, 12, 13, 14, 15};
 3a4:	20 e1       	ldi	r18, 0x10	; 16
 3a6:	e0 e0       	ldi	r30, 0x00	; 0
 3a8:	f4 e0       	ldi	r31, 0x04	; 4
 3aa:	ce 01       	movw	r24, r28
 3ac:	01 96       	adiw	r24, 0x01	; 1
 3ae:	dc 01       	movw	r26, r24
 3b0:	01 90       	ld	r0, Z+
 3b2:	0d 92       	st	X+, r0
 3b4:	2a 95       	dec	r18
 3b6:	e1 f7       	brne	.-8      	; 0x3b0 <main+0x22>
	u8 IV[16] = {0, 1, 2, 3, 4, 5, 6, 7, 8, 9, 10, 11, 12, 13};
 3b8:	20 e1       	ldi	r18, 0x10	; 16
 3ba:	ce 01       	movw	r24, r28
 3bc:	41 96       	adiw	r24, 0x11	; 17
 3be:	fc 01       	movw	r30, r24
 3c0:	32 2f       	mov	r19, r18
 3c2:	11 92       	st	Z+, r1
 3c4:	3a 95       	dec	r19
 3c6:	e9 f7       	brne	.-6      	; 0x3c2 <main+0x34>
 3c8:	81 e0       	ldi	r24, 0x01	; 1
 3ca:	8a 8b       	std	Y+18, r24	; 0x12
 3cc:	82 e0       	ldi	r24, 0x02	; 2
 3ce:	8b 8b       	std	Y+19, r24	; 0x13
 3d0:	83 e0       	ldi	r24, 0x03	; 3
 3d2:	8c 8b       	std	Y+20, r24	; 0x14
 3d4:	84 e0       	ldi	r24, 0x04	; 4
 3d6:	8d 8b       	std	Y+21, r24	; 0x15
 3d8:	85 e0       	ldi	r24, 0x05	; 5
 3da:	8e 8b       	std	Y+22, r24	; 0x16
 3dc:	86 e0       	ldi	r24, 0x06	; 6
 3de:	8f 8b       	std	Y+23, r24	; 0x17
 3e0:	87 e0       	ldi	r24, 0x07	; 7
 3e2:	88 8f       	std	Y+24, r24	; 0x18
 3e4:	88 e0       	ldi	r24, 0x08	; 8
 3e6:	89 8f       	std	Y+25, r24	; 0x19
 3e8:	89 e0       	ldi	r24, 0x09	; 9
 3ea:	8a 8f       	std	Y+26, r24	; 0x1a
 3ec:	8a e0       	ldi	r24, 0x0A	; 10
 3ee:	8b 8f       	std	Y+27, r24	; 0x1b
 3f0:	8b e0       	ldi	r24, 0x0B	; 11
 3f2:	8c 8f       	std	Y+28, r24	; 0x1c
 3f4:	8c e0       	ldi	r24, 0x0C	; 12
 3f6:	8d 8f       	std	Y+29, r24	; 0x1d
 3f8:	8d e0       	ldi	r24, 0x0D	; 13
 3fa:	8e 8f       	std	Y+30, r24	; 0x1e
	u8 IV2[16]  = {0,};
 3fc:	20 e1       	ldi	r18, 0x10	; 16
 3fe:	ce 01       	movw	r24, r28
 400:	81 96       	adiw	r24, 0x21	; 33
 402:	fc 01       	movw	r30, r24
 404:	32 2f       	mov	r19, r18
 406:	11 92       	st	Z+, r1
 408:	3a 95       	dec	r19
 40a:	e9 f7       	brne	.-6      	; 0x406 <__LOCK_REGION_LENGTH__+0x6>
	//u8 key[16] = {0x2b,0x7e,0x15,0x16,0x28,0xae,0xd2,0xa6,0xab,0xf7,0x15,0x88,0x09,0xcf,0x4f,0x3c};
	//u8 IV[16] = {0x32,0x43,0xf6,0xa8,0x88,0x5a,0x30,0x8d,0x31,0x31,0x98,0xa2,0xe0,0x37,0x07,0x34};
	aes128_ctx_t aes_test;
	aes128_init(key, &aes_test);
 40c:	ce 01       	movw	r24, r28
 40e:	c1 96       	adiw	r24, 0x31	; 49
 410:	bc 01       	movw	r22, r24
 412:	ce 01       	movw	r24, r28
 414:	01 96       	adiw	r24, 0x01	; 1
 416:	5b df       	rcall	.-330    	; 0x2ce <aes128_init>
	aes128_enc(IV,&aes_test);
 418:	9e 01       	movw	r18, r28
 41a:	2f 5c       	subi	r18, 0xCF	; 207
 41c:	3f 4f       	sbci	r19, 0xFF	; 255
 41e:	ce 01       	movw	r24, r28
 420:	41 96       	adiw	r24, 0x11	; 17
 422:	b9 01       	movw	r22, r18
 424:	39 de       	rcall	.-910    	; 0x98 <aes128_enc>
 426:	80 e0       	ldi	r24, 0x00	; 0
 428:	90 e0       	ldi	r25, 0x00	; 0
	//aes256_enc(IV2,&aes_test);
	//aes256_enc_nobr(IV,&aes_test);
	//aes256_enc_origin(IV,&aes_test);

	
}
 42a:	c0 52       	subi	r28, 0x20	; 32
 42c:	df 4f       	sbci	r29, 0xFF	; 255
 42e:	0f b6       	in	r0, 0x3f	; 63
 430:	f8 94       	cli
 432:	de bf       	out	0x3e, r29	; 62
 434:	0f be       	out	0x3f, r0	; 63
 436:	cd bf       	out	0x3d, r28	; 61
 438:	df 91       	pop	r29
 43a:	cf 91       	pop	r28
 43c:	08 95       	ret

0000043e <_exit>:
 43e:	f8 94       	cli

00000440 <__stop_program>:
 440:	ff cf       	rjmp	.-2      	; 0x440 <__stop_program>
